
lms_spi_controller.elf:     file format elf32-littlenios2
lms_spi_controller.elf
architecture: nios2, flags 0x00000112:
EXEC_P, HAS_SYMS, D_PAGED
start address 0x00000020

Program Header:
    LOAD off    0x00001000 vaddr 0x00000000 paddr 0x00000000 align 2**12
         filesz 0x00000020 memsz 0x00000020 flags r-x
    LOAD off    0x00001020 vaddr 0x00000020 paddr 0x00000020 align 2**12
         filesz 0x00003494 memsz 0x00003494 flags r-x
    LOAD off    0x000044b4 vaddr 0x000034b4 paddr 0x000035b8 align 2**12
         filesz 0x00000104 memsz 0x00000104 flags rw-
    LOAD off    0x000046bc vaddr 0x000036bc paddr 0x000036bc align 2**12
         filesz 0x00000000 memsz 0x00000024 flags rw-

Sections:
Idx Name          Size      VMA       LMA       File off  Algn
  0 .entry        00000020  00000000  00000000  00001000  2**5
                  CONTENTS, ALLOC, LOAD, READONLY, CODE
  1 .text         00003014  00000020  00000020  00001020  2**2
                  CONTENTS, ALLOC, LOAD, READONLY, CODE
  2 .rodata       00000480  00003034  00003034  00004034  2**2
                  CONTENTS, ALLOC, LOAD, READONLY, DATA
  3 .rwdata       00000104  000034b4  000035b8  000044b4  2**2
                  CONTENTS, ALLOC, LOAD, DATA, SMALL_DATA
  4 .bss          00000024  000036bc  000036bc  000046bc  2**2
                  ALLOC, SMALL_DATA
  5 .comment      00000049  00000000  00000000  000045b8  2**0
                  CONTENTS, READONLY
  6 .debug_aranges 00000308  00000000  00000000  00004608  2**3
                  CONTENTS, READONLY, DEBUGGING
  7 .debug_pubnames 0000084d  00000000  00000000  00004910  2**0
                  CONTENTS, READONLY, DEBUGGING
  8 .debug_info   00005572  00000000  00000000  0000515d  2**0
                  CONTENTS, READONLY, DEBUGGING
  9 .debug_abbrev 00001897  00000000  00000000  0000a6cf  2**0
                  CONTENTS, READONLY, DEBUGGING
 10 .debug_line   00005882  00000000  00000000  0000bf66  2**0
                  CONTENTS, READONLY, DEBUGGING
 11 .debug_frame  000008b8  00000000  00000000  000117e8  2**2
                  CONTENTS, READONLY, DEBUGGING
 12 .debug_str    000015ac  00000000  00000000  000120a0  2**0
                  CONTENTS, READONLY, DEBUGGING
 13 .debug_loc    00002a54  00000000  00000000  0001364c  2**0
                  CONTENTS, READONLY, DEBUGGING
 14 .debug_alt_sim_info 00000010  00000000  00000000  000160a0  2**2
                  CONTENTS, READONLY, DEBUGGING
 15 .debug_ranges 00000338  00000000  00000000  000160b0  2**3
                  CONTENTS, READONLY, DEBUGGING
 16 .thread_model 00000003  00000000  00000000  00017c18  2**0
                  CONTENTS, READONLY
 17 .cpu          0000000c  00000000  00000000  00017c1b  2**0
                  CONTENTS, READONLY
 18 .qsys         00000001  00000000  00000000  00017c27  2**0
                  CONTENTS, READONLY
 19 .simulation_enabled 00000001  00000000  00000000  00017c28  2**0
                  CONTENTS, READONLY
 20 .stderr_dev   0000000b  00000000  00000000  00017c29  2**0
                  CONTENTS, READONLY
 21 .stdin_dev    0000000b  00000000  00000000  00017c34  2**0
                  CONTENTS, READONLY
 22 .stdout_dev   0000000b  00000000  00000000  00017c3f  2**0
                  CONTENTS, READONLY
 23 .sopc_system_name 0000000b  00000000  00000000  00017c4a  2**0
                  CONTENTS, READONLY
 24 .quartus_project_dir 0000004a  00000000  00000000  00017c55  2**0
                  CONTENTS, READONLY
 25 .sopcinfo     0003fac4  00000000  00000000  00017c9f  2**0
                  CONTENTS, READONLY
SYMBOL TABLE:
00000000 l    d  .entry	00000000 .entry
00000020 l    d  .text	00000000 .text
00003034 l    d  .rodata	00000000 .rodata
000034b4 l    d  .rwdata	00000000 .rwdata
000036bc l    d  .bss	00000000 .bss
00000000 l    d  .comment	00000000 .comment
00000000 l    d  .debug_aranges	00000000 .debug_aranges
00000000 l    d  .debug_pubnames	00000000 .debug_pubnames
00000000 l    d  .debug_info	00000000 .debug_info
00000000 l    d  .debug_abbrev	00000000 .debug_abbrev
00000000 l    d  .debug_line	00000000 .debug_line
00000000 l    d  .debug_frame	00000000 .debug_frame
00000000 l    d  .debug_str	00000000 .debug_str
00000000 l    d  .debug_loc	00000000 .debug_loc
00000000 l    d  .debug_alt_sim_info	00000000 .debug_alt_sim_info
00000000 l    d  .debug_ranges	00000000 .debug_ranges
00000058 l       .text	00000000 alt_after_alt_main
00000000 l    df *ABS*	00000000 hello_world_small.c
00000000 l    df *ABS*	00000000 lms_spi_config.c
00000000 l    df *ABS*	00000000 libgcc2.c
00000000 l    df *ABS*	00000000 lib2-divmod.c
00002098 l     F .text	0000007c udivmodsi4
00000000 l    df *ABS*	00000000 lib2-mul.c
00000000 l    df *ABS*	00000000 libgcc2.c
00000000 l    df *ABS*	00000000 printf.c
00000000 l    df *ABS*	00000000 puts.c
00000000 l    df *ABS*	00000000 strlen.c
00000000 l    df *ABS*	00000000 vfprintf.c
00002378 l     F .text	00000080 print_repeat
00000000 l    df *ABS*	00000000 fvwrite_small_dev.c
00000000 l    df *ABS*	00000000 impure.c
000034b4 l     O .rwdata	000000e0 impure_data
00000000 l    df *ABS*	00000000 writer.c
00000000 l    df *ABS*	00000000 int_errno.c
00000000 l    df *ABS*	00000000 alt_load.c
00002bec l     F .text	00000020 alt_load_section
00000000 l    df *ABS*	00000000 alt_main.c
00000000 l    df *ABS*	00000000 alt_printf.c
00000000 l    df *ABS*	00000000 alt_putchar.c
00000000 l    df *ABS*	00000000 alt_putstr.c
00000000 l    df *ABS*	00000000 alt_write.c
00000000 l    df *ABS*	00000000 alt_sys_init.c
00000000 l    df *ABS*	00000000 altera_avalon_jtag_uart_write.c
00000000 l    df *ABS*	00000000 altera_avalon_spi.c
00000000 l    df *ABS*	00000000 alt_dcache_flush_all.c
00000000 l    df *ABS*	00000000 alt_errno.c
00000000 l    df *ABS*	00000000 alt_icache_flush_all.c
00000000 l    df *ABS*	00000000 altera_nios2_qsys_irq.c
00002c78 g     F .text	0000002c alt_main
000022b4 g     F .text	00000090 _puts_r
000035b8 g       *ABS*	00000000 __flash_rwdata_start
00003598 g     O .rwdata	00000004 OC_I2C_DATA
0000221c g     F .text	00000054 printf
000035a0 g     O .rwdata	00000004 OC_I2C_CMD_STATUS
0000080c g     F .text	00000018 lms_lpf_disable
0000043c g     F .text	00000074 lms_spi_write
00002e38 g     F .text	00000038 alt_putstr
00000000  w      *UND*	00000000 __errno
00000000 g     F .entry	0000000c __reset
000007cc g     F .text	0000000c lms_rxvga1_disable
00000524 g     F .text	00000260 lms_calibrate_dc
00000020 g       *ABS*	00000000 __flash_exceptions_start
000036bc g     O .bss	00000004 errno
000036c4 g     O .bss	00000004 alt_argv
0000b594 g       *ABS*	00000000 _gp
00000e6c g     F .text	00000044 lms_tx_enable
00000784 g     F .text	0000003c lms_rxvga2_set_gain
000003f0 g     F .text	0000004c lms_print_frequency
00002344 g     F .text	00000014 puts
00000f3c g     F .text	00000054 lms_pll_disable
00003240 g     O .rodata	000000c0 bands
00002270 g     F .text	00000044 _printf_r
00000000 g       *ABS*	00000000 __alt_mem_onchip_memory2_0
000021d4 g     F .text	00000008 __udivsi3
000007c0 g     F .text	0000000c lms_rxvga1_enable
0000137c g     F .text	00000058 lms_rxvga2_enable
000035a8 g     O .rwdata	00000004 _global_impure_ptr
000036e0 g       *ABS*	00000000 __bss_end
00001a2c g     F .text	0000066c __udivdi3
000008ec g     F .text	00000050 lms_dump_registers
0000005c g     F .text	000000d4 si5338_write
00003024 g     F .text	00000004 alt_dcache_flush_all
00000d3c g     F .text	000000e8 lms_get_frequency
000007d8 g     F .text	00000034 lms_soft_reset
000035b8 g       *ABS*	00000000 __ram_rwdata_end
00002e70 g     F .text	00000078 write
000034b4 g       *ABS*	00000000 __ram_rodata_end
000035ac g     O .rwdata	00000004 jtag_uart_0
00000eb0 g     F .text	00000048 lms_rx_disable
000021dc g     F .text	00000008 __umodsi3
000036e0 g       *ABS*	00000000 end
00014000 g       *ABS*	00000000 __alt_stack_pointer
000010b8 g     F .text	00000044 lms_peakdetect_disable
00002f0c g     F .text	00000034 altera_avalon_jtag_uart_write
0000359c g     O .rwdata	00000004 OC_I2C_CTRL
000023f8 g     F .text	0000069c ___vfprintf_internal_r
00002ca4 g     F .text	00000144 alt_printf
00000020 g     F .text	0000003c _start
000036cc g     O .bss	00000014 xcvr_config
00002f40 g     F .text	000000e4 alt_avalon_spi_command
0000124c g     F .text	00000080 lms_pa_enable
00002ee8 g     F .text	00000004 alt_sys_init
0000141c g     F .text	00000060 lms_lna_select
00001028 g     F .text	00000090 lms_get_loopback_mode
000021e4 g     F .text	00000038 __mulsi3
000034b4 g       *ABS*	00000000 __ram_rwdata_start
00003034 g       *ABS*	00000000 __ram_rodata_start
00003594 g     O .rwdata	00000004 OC_I2C_PRESCALER
00001144 g     F .text	0000007c lms_pa_disable
000036e0 g       *ABS*	00000000 __alt_stack_base
000012cc g     F .text	000000b0 lms_tx_loopback_enable
00000824 g     F .text	000000c8 lms_spi_read
000011c0 g     F .text	0000008c lms_tx_loopback_disable
00002ab8 g     F .text	000000bc __sfvwrite_small_dev
000036bc g       *ABS*	00000000 __bss_start
00000214 g     F .text	000001dc main
000036c8 g     O .bss	00000004 alt_envp
000035b0 g     O .rwdata	00000004 uart_0
000017a4 g     F .text	000000b8 lms_lpf_enable
00000fe0 g     F .text	00000048 lms_power_down
00000130 g     F .text	000000e4 si5338_read
000035b4 g     O .rwdata	00000004 alt_errno
0000171c g     F .text	00000038 lms_get_bandwidth
00001754 g     F .text	00000050 lms_lpf_bypass
000015fc g     F .text	0000005c lms_lna_set_gain
00002114 g     F .text	00000060 __divsi3
0000093c g     F .text	00000400 lms_set_frequency
00003034 g       *ABS*	00000000 __flash_rodata_start
0000157c g     F .text	00000080 lms_config_init
00002eec g     F .text	00000020 alt_irq_init
000033b4 g     O .rodata	00000100 __clz_tab
00002b74 g     F .text	00000078 _write_r
000035a4 g     O .rwdata	00000004 _impure_ptr
00003300 g     O .rodata	000000b2 lms_reg_dumpset
000036c0 g     O .bss	00000004 alt_argc
000016a8 g     F .text	00000074 lms_dither_enable
00000ef8 g     F .text	00000044 lms_rx_enable
000004b0 g     F .text	00000074 lms_lpf_init
00000e24 g     F .text	00000048 lms_tx_disable
00000f90 g     F .text	00000050 lms_pll_enable
00000020 g       *ABS*	00000000 __ram_exceptions_start
00001970 g     F .text	000000bc dac_write
000035b8 g       *ABS*	00000000 _edata
000036e0 g       *ABS*	00000000 _end
00000020 g       *ABS*	00000000 __ram_exceptions_end
0000185c g     F .text	00000114 lms_loopback_disable
000013d4 g     F .text	00000048 lms_rxvga2_disable
0000302c g     F .text	00000008 altera_nios2_qsys_irq_init
0000000c g       .entry	00000000 exit
00002174 g     F .text	00000060 __modsi3
00014000 g       *ABS*	00000000 __alt_data_end
0000000c g       .entry	00000000 _exit
00002358 g     F .text	00000020 strlen
00002de8 g     F .text	00000050 alt_putchar
00003028 g     F .text	00000004 alt_icache_flush_all
00002a94 g     F .text	00000024 __vfprintf_internal
0000147c g     F .text	00000100 lms_loopback_enable
00001658 g     F .text	00000050 lms_dither_disable
00002c0c g     F .text	0000006c alt_load
000010fc g     F .text	00000048 lms_peakdetect_enable



Disassembly of section .entry:

00000000 <__reset>:
 * Jump to the _start entry point in the .text section if reset code
 * is allowed or if optimizing for RTL simulation.
 */
#if defined(ALT_ALLOW_CODE_AT_RESET) || defined(ALT_SIM_OPTIMIZE)
    /* Jump to the _start entry point in the .text section. */
    movhi r1, %hi(_start)
   0:	00400034 	movhi	at,0
    ori r1, r1, %lo(_start)
   4:	08400814 	ori	at,at,32
    jmp r1
   8:	0800683a 	jmp	at

0000000c <_exit>:
	...

Disassembly of section .text:

00000020 <_start>:
#if (NIOS2_NUM_OF_SHADOW_REG_SETS == 0)    
    /*
     * Now that the caches are initialized, set up the stack pointer.
     * The value provided by the linker is assumed to be correctly aligned.
     */
    movhi sp, %hi(__alt_stack_pointer)
      20:	06c00074 	movhi	sp,1
    ori sp, sp, %lo(__alt_stack_pointer)
      24:	ded00014 	ori	sp,sp,16384

    /* Set up the global pointer. */
    movhi gp, %hi(_gp)
      28:	06800034 	movhi	gp,0
    ori gp, gp, %lo(_gp)
      2c:	d6ad6514 	ori	gp,gp,46484
 */
#ifndef ALT_SIM_OPTIMIZE
    /* Log that the BSS is about to be cleared. */
    ALT_LOG_PUTS(alt_log_msg_bss)

    movhi r2, %hi(__bss_start)
      30:	00800034 	movhi	r2,0
    ori r2, r2, %lo(__bss_start)
      34:	108daf14 	ori	r2,r2,14012

    movhi r3, %hi(__bss_end)
      38:	00c00034 	movhi	r3,0
    ori r3, r3, %lo(__bss_end)
      3c:	18cdb814 	ori	r3,r3,14048

    beq r2, r3, 1f
      40:	10c00326 	beq	r2,r3,50 <_start+0x30>

0:
    stw zero, (r2)
      44:	10000015 	stw	zero,0(r2)
    addi r2, r2, 4
      48:	10800104 	addi	r2,r2,4
    bltu r2, r3, 0b
      4c:	10fffd36 	bltu	r2,r3,44 <_start+0x24>
     * section aren't defined until alt_load() has been called).
     */
    mov   et, zero
#endif

    call alt_load
      50:	0002c0c0 	call	2c0c <alt_load>

    /* Log that alt_main is about to be called. */
    ALT_LOG_PUTS(alt_log_msg_alt_main)

    /* Call the C entry point. It should never return. */
    call alt_main
      54:	0002c780 	call	2c78 <alt_main>

00000058 <alt_after_alt_main>:

    /* Wait in infinite loop in case alt_main does return. */
alt_after_alt_main:
    br alt_after_alt_main
      58:	003fff06 	br	58 <alt_after_alt_main>

0000005c <si5338_write>:

	*data = *OC_I2C_DATA ;
	return ;
}

void si5338_write( uint8_t addr, uint8_t data ) {
      5c:	defffa04 	addi	sp,sp,-24
      60:	dfc00515 	stw	ra,20(sp)
      64:	dd000415 	stw	r20,16(sp)
      68:	dcc00315 	stw	r19,12(sp)
      6c:	dc800215 	stw	r18,8(sp)
      70:	dc400115 	stw	r17,4(sp)
      74:	dc000015 	stw	r16,0(sp)
	// TODO: Make sure this works
	// Set the address to the Si5338
	*OC_I2C_DATA = SI5338_I2C ;
	*OC_I2C_CMD_STATUS |= (OC_I2C_STA  | OC_I2C_WR) ;
      78:	044000b4 	movhi	r17,2
      7c:	8c580104 	addi	r17,r17,24580
      80:	88c00003 	ldbu	r3,0(r17)
      84:	00bfe404 	movi	r2,-112
}

void si5338_write( uint8_t addr, uint8_t data ) {
	// TODO: Make sure this works
	// Set the address to the Si5338
	*OC_I2C_DATA = SI5338_I2C ;
      88:	048000b4 	movhi	r18,2
      8c:	949800c4 	addi	r18,r18,24579
	*OC_I2C_CMD_STATUS |= (OC_I2C_STA  | OC_I2C_WR) ;
      90:	1886b03a 	or	r3,r3,r2
}

void si5338_write( uint8_t addr, uint8_t data ) {
	// TODO: Make sure this works
	// Set the address to the Si5338
	*OC_I2C_DATA = SI5338_I2C ;
      94:	00bff804 	movi	r2,-32
	*OC_I2C_CMD_STATUS |= (OC_I2C_STA  | OC_I2C_WR) ;
	printf( " \b \b \b \b" ) ;
      98:	04000034 	movhi	r16,0
      9c:	840c0d04 	addi	r16,r16,12340
}

void si5338_write( uint8_t addr, uint8_t data ) {
	// TODO: Make sure this works
	// Set the address to the Si5338
	*OC_I2C_DATA = SI5338_I2C ;
      a0:	90800005 	stb	r2,0(r18)
	*OC_I2C_CMD_STATUS |= (OC_I2C_STA  | OC_I2C_WR) ;
      a4:	88c00005 	stb	r3,0(r17)

	*data = *OC_I2C_DATA ;
	return ;
}

void si5338_write( uint8_t addr, uint8_t data ) {
      a8:	2027883a 	mov	r19,r4
	// TODO: Make sure this works
	// Set the address to the Si5338
	*OC_I2C_DATA = SI5338_I2C ;
	*OC_I2C_CMD_STATUS |= (OC_I2C_STA  | OC_I2C_WR) ;
	printf( " \b \b \b \b" ) ;
      ac:	8009883a 	mov	r4,r16

	*data = *OC_I2C_DATA ;
	return ;
}

void si5338_write( uint8_t addr, uint8_t data ) {
      b0:	2829883a 	mov	r20,r5
	// TODO: Make sure this works
	// Set the address to the Si5338
	*OC_I2C_DATA = SI5338_I2C ;
	*OC_I2C_CMD_STATUS |= (OC_I2C_STA  | OC_I2C_WR) ;
	printf( " \b \b \b \b" ) ;
      b4:	000221c0 	call	221c <printf>
	while( (*OC_I2C_CMD_STATUS&OC_I2C_RXACK) == 1 ) { } ;
	printf( " \b \b \b \b" ) ;
      b8:	8009883a 	mov	r4,r16
      bc:	000221c0 	call	221c <printf>

	*OC_I2C_DATA = addr ;
	*OC_I2C_CMD_STATUS |= OC_I2C_WR ;
      c0:	88800003 	ldbu	r2,0(r17)
	*OC_I2C_CMD_STATUS |= (OC_I2C_STA  | OC_I2C_WR) ;
	printf( " \b \b \b \b" ) ;
	while( (*OC_I2C_CMD_STATUS&OC_I2C_RXACK) == 1 ) { } ;
	printf( " \b \b \b \b" ) ;

	*OC_I2C_DATA = addr ;
      c4:	94c00005 	stb	r19,0(r18)
	*OC_I2C_CMD_STATUS |= OC_I2C_WR ;
	printf( " \b \b \b \b" ) ;
      c8:	8009883a 	mov	r4,r16
	printf( " \b \b \b \b" ) ;
	while( (*OC_I2C_CMD_STATUS&OC_I2C_RXACK) == 1 ) { } ;
	printf( " \b \b \b \b" ) ;

	*OC_I2C_DATA = addr ;
	*OC_I2C_CMD_STATUS |= OC_I2C_WR ;
      cc:	10800414 	ori	r2,r2,16
      d0:	88800005 	stb	r2,0(r17)
	printf( " \b \b \b \b" ) ;
      d4:	000221c0 	call	221c <printf>
	while( (*OC_I2C_CMD_STATUS&OC_I2C_TIP) == 1 ) { } ;
	printf( "        " ) ;
      d8:	01000034 	movhi	r4,0
      dc:	210c1004 	addi	r4,r4,12352
      e0:	000221c0 	call	221c <printf>
	while( (*OC_I2C_CMD_STATUS&OC_I2C_RXACK) == 1 ) { } ;
	printf( " \b \b \b \b" ) ;
      e4:	8009883a 	mov	r4,r16
      e8:	000221c0 	call	221c <printf>

	*OC_I2C_DATA = data ;
	*OC_I2C_CMD_STATUS |= (OC_I2C_WR | OC_I2C_STO) ;
      ec:	88800003 	ldbu	r2,0(r17)
	while( (*OC_I2C_CMD_STATUS&OC_I2C_TIP) == 1 ) { } ;
	printf( "        " ) ;
	while( (*OC_I2C_CMD_STATUS&OC_I2C_RXACK) == 1 ) { } ;
	printf( " \b \b \b \b" ) ;

	*OC_I2C_DATA = data ;
      f0:	95000005 	stb	r20,0(r18)
	*OC_I2C_CMD_STATUS |= (OC_I2C_WR | OC_I2C_STO) ;
	printf( " \b \b \b \b" ) ;
      f4:	8009883a 	mov	r4,r16
	printf( "        " ) ;
	while( (*OC_I2C_CMD_STATUS&OC_I2C_RXACK) == 1 ) { } ;
	printf( " \b \b \b \b" ) ;

	*OC_I2C_DATA = data ;
	*OC_I2C_CMD_STATUS |= (OC_I2C_WR | OC_I2C_STO) ;
      f8:	10801414 	ori	r2,r2,80
      fc:	88800005 	stb	r2,0(r17)
	printf( " \b \b \b \b" ) ;
     100:	000221c0 	call	221c <printf>
	while( (*OC_I2C_CMD_STATUS&OC_I2C_RXACK) == 1 ) { } ;
	printf( " \b \b \b \b" ) ;
     104:	8009883a 	mov	r4,r16
     108:	000221c0 	call	221c <printf>
	while( (*OC_I2C_CMD_STATUS&OC_I2C_TIP) == 1 ) { } ;
	printf( " \b \b \b \b" ) ;
     10c:	8009883a 	mov	r4,r16
	return ;
}
     110:	dfc00517 	ldw	ra,20(sp)
     114:	dd000417 	ldw	r20,16(sp)
     118:	dcc00317 	ldw	r19,12(sp)
     11c:	dc800217 	ldw	r18,8(sp)
     120:	dc400117 	ldw	r17,4(sp)
     124:	dc000017 	ldw	r16,0(sp)
     128:	dec00604 	addi	sp,sp,24
	*OC_I2C_CMD_STATUS |= (OC_I2C_WR | OC_I2C_STO) ;
	printf( " \b \b \b \b" ) ;
	while( (*OC_I2C_CMD_STATUS&OC_I2C_RXACK) == 1 ) { } ;
	printf( " \b \b \b \b" ) ;
	while( (*OC_I2C_CMD_STATUS&OC_I2C_TIP) == 1 ) { } ;
	printf( " \b \b \b \b" ) ;
     12c:	000221c1 	jmpi	221c <printf>

00000130 <si5338_read>:
#define OC_I2C_RD (1<<5)
#define OC_I2C_TIP (1<<1)
#define OC_I2C_RXACK (1<<7)
#define OC_I2C_NACK (1<<3)

void si5338_read( uint8_t addr, uint8_t *data ) {
     130:	defff904 	addi	sp,sp,-28
     134:	dfc00615 	stw	ra,24(sp)
     138:	dd400515 	stw	r21,20(sp)
     13c:	dd000415 	stw	r20,16(sp)
     140:	dcc00315 	stw	r19,12(sp)
     144:	dc800215 	stw	r18,8(sp)
     148:	dc400115 	stw	r17,4(sp)
     14c:	dc000015 	stw	r16,0(sp)

	// Set the address to the Si5338
	*OC_I2C_DATA = SI5338_I2C ;

	*OC_I2C_CMD_STATUS |= (OC_I2C_STA  | OC_I2C_WR) ;
     150:	040000b4 	movhi	r16,2
     154:	84180104 	addi	r16,r16,24580
     158:	80c00003 	ldbu	r3,0(r16)
#define OC_I2C_NACK (1<<3)

void si5338_read( uint8_t addr, uint8_t *data ) {

	// Set the address to the Si5338
	*OC_I2C_DATA = SI5338_I2C ;
     15c:	048000b4 	movhi	r18,2
     160:	949800c4 	addi	r18,r18,24579

	*OC_I2C_CMD_STATUS |= (OC_I2C_STA  | OC_I2C_WR) ;
     164:	053fe404 	movi	r20,-112
#define OC_I2C_NACK (1<<3)

void si5338_read( uint8_t addr, uint8_t *data ) {

	// Set the address to the Si5338
	*OC_I2C_DATA = SI5338_I2C ;
     168:	00bff804 	movi	r2,-32

	*OC_I2C_CMD_STATUS |= (OC_I2C_STA  | OC_I2C_WR) ;
	printf( " \b \b \b \b" ) ;
     16c:	04400034 	movhi	r17,0
     170:	8c4c0d04 	addi	r17,r17,12340
void si5338_read( uint8_t addr, uint8_t *data ) {

	// Set the address to the Si5338
	*OC_I2C_DATA = SI5338_I2C ;

	*OC_I2C_CMD_STATUS |= (OC_I2C_STA  | OC_I2C_WR) ;
     174:	1d06b03a 	or	r3,r3,r20
#define OC_I2C_NACK (1<<3)

void si5338_read( uint8_t addr, uint8_t *data ) {

	// Set the address to the Si5338
	*OC_I2C_DATA = SI5338_I2C ;
     178:	90800005 	stb	r2,0(r18)

	*OC_I2C_CMD_STATUS |= (OC_I2C_STA  | OC_I2C_WR) ;
     17c:	80c00005 	stb	r3,0(r16)
#define OC_I2C_RD (1<<5)
#define OC_I2C_TIP (1<<1)
#define OC_I2C_RXACK (1<<7)
#define OC_I2C_NACK (1<<3)

void si5338_read( uint8_t addr, uint8_t *data ) {
     180:	2027883a 	mov	r19,r4

	// Set the address to the Si5338
	*OC_I2C_DATA = SI5338_I2C ;

	*OC_I2C_CMD_STATUS |= (OC_I2C_STA  | OC_I2C_WR) ;
	printf( " \b \b \b \b" ) ;
     184:	8809883a 	mov	r4,r17
#define OC_I2C_RD (1<<5)
#define OC_I2C_TIP (1<<1)
#define OC_I2C_RXACK (1<<7)
#define OC_I2C_NACK (1<<3)

void si5338_read( uint8_t addr, uint8_t *data ) {
     188:	282b883a 	mov	r21,r5

	// Set the address to the Si5338
	*OC_I2C_DATA = SI5338_I2C ;

	*OC_I2C_CMD_STATUS |= (OC_I2C_STA  | OC_I2C_WR) ;
	printf( " \b \b \b \b" ) ;
     18c:	000221c0 	call	221c <printf>
	while( (*OC_I2C_CMD_STATUS&OC_I2C_RXACK) == 1 ) { } ;
	printf( " \b \b \b \b" ) ;
     190:	8809883a 	mov	r4,r17
     194:	000221c0 	call	221c <printf>

	*OC_I2C_DATA = addr ;

	*OC_I2C_CMD_STATUS |= (OC_I2C_WR | OC_I2C_STO) ;
     198:	80800003 	ldbu	r2,0(r16)
	*OC_I2C_CMD_STATUS |= (OC_I2C_STA  | OC_I2C_WR) ;
	printf( " \b \b \b \b" ) ;
	while( (*OC_I2C_CMD_STATUS&OC_I2C_RXACK) == 1 ) { } ;
	printf( " \b \b \b \b" ) ;

	*OC_I2C_DATA = addr ;
     19c:	94c00005 	stb	r19,0(r18)

	*OC_I2C_CMD_STATUS |= (OC_I2C_WR | OC_I2C_STO) ;

	while( (*OC_I2C_CMD_STATUS&OC_I2C_RXACK) == 1 ) { } ;
	printf( " \b \b \b \b" ) ;
     1a0:	8809883a 	mov	r4,r17
	while( (*OC_I2C_CMD_STATUS&OC_I2C_RXACK) == 1 ) { } ;
	printf( " \b \b \b \b" ) ;

	*OC_I2C_DATA = addr ;

	*OC_I2C_CMD_STATUS |= (OC_I2C_WR | OC_I2C_STO) ;
     1a4:	10801414 	ori	r2,r2,80
     1a8:	80800005 	stb	r2,0(r16)

	while( (*OC_I2C_CMD_STATUS&OC_I2C_RXACK) == 1 ) { } ;
	printf( " \b \b \b \b" ) ;
     1ac:	000221c0 	call	221c <printf>
	while( (*OC_I2C_CMD_STATUS&OC_I2C_TIP) == 1 ) { } ;
	printf( " \b \b \b \b" ) ;
     1b0:	8809883a 	mov	r4,r17
     1b4:	000221c0 	call	221c <printf>

	// Next transfer is a read operation, so '1' in the read
	*OC_I2C_DATA = SI5338_I2C + 1 ;

	*OC_I2C_CMD_STATUS |= (OC_I2C_STA | OC_I2C_WR) ;
     1b8:	80c00003 	ldbu	r3,0(r16)
	printf( " \b \b \b \b" ) ;
	while( (*OC_I2C_CMD_STATUS&OC_I2C_TIP) == 1 ) { } ;
	printf( " \b \b \b \b" ) ;

	// Next transfer is a read operation, so '1' in the read
	*OC_I2C_DATA = SI5338_I2C + 1 ;
     1bc:	00bff844 	movi	r2,-31
     1c0:	90800005 	stb	r2,0(r18)

	*OC_I2C_CMD_STATUS |= (OC_I2C_STA | OC_I2C_WR) ;
     1c4:	1d06b03a 	or	r3,r3,r20
	while( (*OC_I2C_CMD_STATUS&OC_I2C_RXACK) == 1 ) { } ;
	printf( " \b \b \b \b" ) ;
     1c8:	8809883a 	mov	r4,r17
	printf( " \b \b \b \b" ) ;

	// Next transfer is a read operation, so '1' in the read
	*OC_I2C_DATA = SI5338_I2C + 1 ;

	*OC_I2C_CMD_STATUS |= (OC_I2C_STA | OC_I2C_WR) ;
     1cc:	80c00005 	stb	r3,0(r16)
	while( (*OC_I2C_CMD_STATUS&OC_I2C_RXACK) == 1 ) { } ;
	printf( " \b \b \b \b" ) ;
     1d0:	000221c0 	call	221c <printf>

	*OC_I2C_CMD_STATUS |= (OC_I2C_RD | OC_I2C_NACK | OC_I2C_STO) ;
     1d4:	80800003 	ldbu	r2,0(r16)

	while( (*OC_I2C_CMD_STATUS&OC_I2C_TIP) == 1 ) { } ;
	printf( " \b \b \b \b" ) ;
     1d8:	8809883a 	mov	r4,r17

	*OC_I2C_CMD_STATUS |= (OC_I2C_STA | OC_I2C_WR) ;
	while( (*OC_I2C_CMD_STATUS&OC_I2C_RXACK) == 1 ) { } ;
	printf( " \b \b \b \b" ) ;

	*OC_I2C_CMD_STATUS |= (OC_I2C_RD | OC_I2C_NACK | OC_I2C_STO) ;
     1dc:	10801a14 	ori	r2,r2,104
     1e0:	80800005 	stb	r2,0(r16)

	while( (*OC_I2C_CMD_STATUS&OC_I2C_TIP) == 1 ) { } ;
	printf( " \b \b \b \b" ) ;
     1e4:	000221c0 	call	221c <printf>

	*data = *OC_I2C_DATA ;
     1e8:	90800003 	ldbu	r2,0(r18)
     1ec:	a8800005 	stb	r2,0(r21)
	return ;
}
     1f0:	dfc00617 	ldw	ra,24(sp)
     1f4:	dd400517 	ldw	r21,20(sp)
     1f8:	dd000417 	ldw	r20,16(sp)
     1fc:	dcc00317 	ldw	r19,12(sp)
     200:	dc800217 	ldw	r18,8(sp)
     204:	dc400117 	ldw	r17,4(sp)
     208:	dc000017 	ldw	r16,0(sp)
     20c:	dec00704 	addi	sp,sp,28
     210:	f800283a 	ret

00000214 <main>:
	return ;
}

// Entry point
int main()
{
     214:	defffc04 	addi	sp,sp,-16
  uint8_t data ;
  alt_putstr("bladeRF LMS6002D SPI Register Readback!\n");
     218:	01000034 	movhi	r4,0
     21c:	210c1304 	addi	r4,r4,12364
	return ;
}

// Entry point
int main()
{
     220:	dfc00315 	stw	ra,12(sp)
     224:	dc400215 	stw	r17,8(sp)
     228:	dc000115 	stw	r16,4(sp)
  uint8_t data ;
  alt_putstr("bladeRF LMS6002D SPI Register Readback!\n");
     22c:	0002e380 	call	2e38 <alt_putstr>
  alt_putstr("---------------------------------------\n");
     230:	01000034 	movhi	r4,0
     234:	210c1e04 	addi	r4,r4,12408
     238:	0002e380 	call	2e38 <alt_putstr>

  xcvr_config.tx_freq_hz = 500000000;
     23c:	00c00034 	movhi	r3,0
     240:	18cdb304 	addi	r3,r3,14028
  xcvr_config.rx_freq_hz = 500000000;

  xcvr_config.loopback_mode = LB_RF_LNA_START;
     244:	008000c4 	movi	r2,3
     248:	18800215 	stw	r2,8(r3)
  xcvr_config.lna = LNA_1;
     24c:	00800044 	movi	r2,1
{
  uint8_t data ;
  alt_putstr("bladeRF LMS6002D SPI Register Readback!\n");
  alt_putstr("---------------------------------------\n");

  xcvr_config.tx_freq_hz = 500000000;
     250:	01477374 	movhi	r5,7629
     254:	29594004 	addi	r5,r5,25856
  xcvr_config.rx_freq_hz = 500000000;

  xcvr_config.loopback_mode = LB_RF_LNA_START;
  xcvr_config.lna = LNA_1;
     258:	18800315 	stw	r2,12(r3)
  xcvr_config.pa = PA_2;
     25c:	00800084 	movi	r2,2

  lms_config_init(&xcvr_config);
     260:	1809883a 	mov	r4,r3
  uint8_t data ;
  alt_putstr("bladeRF LMS6002D SPI Register Readback!\n");
  alt_putstr("---------------------------------------\n");

  xcvr_config.tx_freq_hz = 500000000;
  xcvr_config.rx_freq_hz = 500000000;
     264:	19400115 	stw	r5,4(r3)
{
  uint8_t data ;
  alt_putstr("bladeRF LMS6002D SPI Register Readback!\n");
  alt_putstr("---------------------------------------\n");

  xcvr_config.tx_freq_hz = 500000000;
     268:	19400015 	stw	r5,0(r3)
  xcvr_config.rx_freq_hz = 500000000;

  xcvr_config.loopback_mode = LB_RF_LNA_START;
  xcvr_config.lna = LNA_1;
  xcvr_config.pa = PA_2;
     26c:	18800415 	stw	r2,16(r3)

  lms_config_init(&xcvr_config);
     270:	000157c0 	call	157c <lms_config_init>

  // Set the prescaler for 384kHz with a 38.4MHz clock
  *OC_I2C_PRESCALER = 0x20 ;
  *OC_I2C_CTRL |= OC_I2C_ENABLE ;
     274:	018000b4 	movhi	r6,2
     278:	31980084 	addi	r6,r6,24578
     27c:	30c00003 	ldbu	r3,0(r6)
     280:	00bfe004 	movi	r2,-128
  xcvr_config.pa = PA_2;

  lms_config_init(&xcvr_config);

  // Set the prescaler for 384kHz with a 38.4MHz clock
  *OC_I2C_PRESCALER = 0x20 ;
     284:	01400804 	movi	r5,32
  *OC_I2C_CTRL |= OC_I2C_ENABLE ;
     288:	1886b03a 	or	r3,r3,r2
  xcvr_config.pa = PA_2;

  lms_config_init(&xcvr_config);

  // Set the prescaler for 384kHz with a 38.4MHz clock
  *OC_I2C_PRESCALER = 0x20 ;
     28c:	008000b4 	movhi	r2,2
     290:	10980004 	addi	r2,r2,24576
     294:	1140000d 	sth	r5,0(r2)
  *OC_I2C_CTRL |= OC_I2C_ENABLE ;
     298:	30c00005 	stb	r3,0(r6)

  {
	  printf( "Si5338 Register Table\n" ) ;
     29c:	01000034 	movhi	r4,0
     2a0:	210c2904 	addi	r4,r4,12452
     2a4:	00023440 	call	2344 <puts>
	  printf( "---------------------\n" ) ;
     2a8:	01000034 	movhi	r4,0
     2ac:	210c2f04 	addi	r4,r4,12476
     2b0:	00023440 	call	2344 <puts>
	  uint8_t i ;
	  for( i = 0 ; ; i++ ) {
		  si5338_read( i, &data ) ;
     2b4:	d80b883a 	mov	r5,sp
     2b8:	0009883a 	mov	r4,zero
     2bc:	00001300 	call	130 <si5338_read>
		  printf( "addr: %d  data: %x\n", i, data ) ;
     2c0:	d9800003 	ldbu	r6,0(sp)
     2c4:	01000034 	movhi	r4,0
     2c8:	210c3504 	addi	r4,r4,12500
     2cc:	000b883a 	mov	r5,zero
     2d0:	000221c0 	call	221c <printf>
     2d4:	0023883a 	mov	r17,zero

  {
	  printf( "Si5338 Register Table\n" ) ;
	  printf( "---------------------\n" ) ;
	  uint8_t i ;
	  for( i = 0 ; ; i++ ) {
     2d8:	8c400044 	addi	r17,r17,1
		  si5338_read( i, &data ) ;
     2dc:	8c003fcc 	andi	r16,r17,255
     2e0:	8009883a 	mov	r4,r16
     2e4:	d80b883a 	mov	r5,sp
     2e8:	00001300 	call	130 <si5338_read>
		  printf( "addr: %d  data: %x\n", i, data ) ;
     2ec:	d9800003 	ldbu	r6,0(sp)
     2f0:	01000034 	movhi	r4,0
     2f4:	210c3504 	addi	r4,r4,12500
     2f8:	800b883a 	mov	r5,r16
     2fc:	000221c0 	call	221c <printf>
		  if( i == 255 ) break ;
     300:	00803fc4 	movi	r2,255
     304:	80bff41e 	bne	r16,r2,2d8 <main+0xc4>
	  }
  }

  {
	  uint8_t i ;
	  si5338_read( 30 ,&data ) ;
     308:	01000784 	movi	r4,30
     30c:	d80b883a 	mov	r5,sp
     310:	00001300 	call	130 <si5338_read>
	  i = data ;
	  printf( "data1: %x\n", data ) ;
     314:	dc000003 	ldbu	r16,0(sp)
     318:	01000034 	movhi	r4,0
     31c:	210c3a04 	addi	r4,r4,12520
     320:	800b883a 	mov	r5,r16
     324:	000221c0 	call	221c <printf>
	  si5338_write( 30, 0xe3 ) ;
     328:	01000784 	movi	r4,30
     32c:	014038c4 	movi	r5,227
     330:	000005c0 	call	5c <si5338_write>
	  data = 0 ;
	  si5338_read( 30, &data ) ;
     334:	01000784 	movi	r4,30
     338:	d80b883a 	mov	r5,sp
	  uint8_t i ;
	  si5338_read( 30 ,&data ) ;
	  i = data ;
	  printf( "data1: %x\n", data ) ;
	  si5338_write( 30, 0xe3 ) ;
	  data = 0 ;
     33c:	d8000005 	stb	zero,0(sp)
	  si5338_read( 30, &data ) ;
     340:	00001300 	call	130 <si5338_read>
	  printf( "data2: %x\n", data ) ;
     344:	d9400003 	ldbu	r5,0(sp)
     348:	01000034 	movhi	r4,0
     34c:	210c3d04 	addi	r4,r4,12532
     350:	000221c0 	call	221c <printf>
	  si5338_write( 30, i ) ;
     354:	800b883a 	mov	r5,r16
     358:	01000784 	movi	r4,30
     35c:	000005c0 	call	5c <si5338_write>
	  data = 1 ;
     360:	00800044 	movi	r2,1
	  si5338_read( 30, &data ) ;
     364:	01000784 	movi	r4,30
     368:	d80b883a 	mov	r5,sp
	  si5338_write( 30, 0xe3 ) ;
	  data = 0 ;
	  si5338_read( 30, &data ) ;
	  printf( "data2: %x\n", data ) ;
	  si5338_write( 30, i ) ;
	  data = 1 ;
     36c:	d8800005 	stb	r2,0(sp)
	  si5338_read( 30, &data ) ;
     370:	00001300 	call	130 <si5338_read>
	  printf( "data3: %x\n", data ) ;
     374:	d9400003 	ldbu	r5,0(sp)
     378:	01000034 	movhi	r4,0
     37c:	210c4004 	addi	r4,r4,12544
     380:	000221c0 	call	221c <printf>
  /* Event loop never exits. */
  {
	  while(1)
	  {
		  // Check if anything is in the JTAG UART
		  uint32_t reg = IORD_ALTERA_AVALON_JTAG_UART_DATA(JTAG_UART_0_BASE) ;
     384:	008000b4 	movhi	r2,2
     388:	10880004 	addi	r2,r2,8192
     38c:	10c00037 	ldwio	r3,0(r2)
		  if( reg & ALTERA_AVALON_JTAG_UART_DATA_RVALID_MSK )
     390:	18a0000c 	andi	r2,r3,32768
     394:	10000926 	beq	r2,zero,3bc <main+0x1a8>
     398:	010000b4 	movhi	r4,2
     39c:	21100204 	addi	r4,r4,16392
		  {
			  // Get value from JTAG UART
			  uint8_t letter = (uint8_t)(reg & ALTERA_AVALON_JTAG_UART_DATA_DATA_MSK) ;

			  // Write it out to the FSK UART
			  while( (IORD_ALTERA_AVALON_UART_STATUS(UART_0_BASE) & ALTERA_AVALON_UART_STATUS_TRDY_MSK) == 0 ) { ; }
     3a0:	20800037 	ldwio	r2,0(r4)
     3a4:	1080100c 	andi	r2,r2,64
     3a8:	103ffd26 	beq	r2,zero,3a0 <main+0x18c>
			  IOWR_ALTERA_AVALON_UART_TXDATA(UART_0_BASE, letter) ;
     3ac:	18c03fcc 	andi	r3,r3,255
     3b0:	008000b4 	movhi	r2,2
     3b4:	10900104 	addi	r2,r2,16388
     3b8:	10c00035 	stwio	r3,0(r2)
		  }

		  // Check if anything is in the FSK UART
		  if( IORD_ALTERA_AVALON_UART_STATUS(UART_0_BASE) & ALTERA_AVALON_UART_STATUS_RRDY_MSK )
     3bc:	008000b4 	movhi	r2,2
     3c0:	10900204 	addi	r2,r2,16392
     3c4:	10800037 	ldwio	r2,0(r2)
     3c8:	1080200c 	andi	r2,r2,128
     3cc:	103fed26 	beq	r2,zero,384 <main+0x170>
		  {
			  uint8_t val ;
			  val = IORD_ALTERA_AVALON_UART_RXDATA(UART_0_BASE) ;
     3d0:	008000b4 	movhi	r2,2
     3d4:	10900004 	addi	r2,r2,16384
     3d8:	11400037 	ldwio	r5,0(r2)

			  // Write it out the JTAG UART
			  alt_printf( "%c", val ) ;
     3dc:	01000034 	movhi	r4,0
     3e0:	210c4304 	addi	r4,r4,12556
     3e4:	29403fcc 	andi	r5,r5,255
     3e8:	0002ca40 	call	2ca4 <alt_printf>
     3ec:	003fe506 	br	384 <main+0x170>

000003f0 <lms_print_frequency>:
}

// Print a frequency structure
void lms_print_frequency( lms_freq_t *f )
{
	alt_printf( "  nint     : %x\n", f->nint ) ;
     3f0:	2140000b 	ldhu	r5,0(r4)
	return ;
}

// Print a frequency structure
void lms_print_frequency( lms_freq_t *f )
{
     3f4:	defffe04 	addi	sp,sp,-8
     3f8:	dc000015 	stw	r16,0(sp)
     3fc:	2021883a 	mov	r16,r4
	alt_printf( "  nint     : %x\n", f->nint ) ;
     400:	01000034 	movhi	r4,0
     404:	210c4404 	addi	r4,r4,12560
	return ;
}

// Print a frequency structure
void lms_print_frequency( lms_freq_t *f )
{
     408:	dfc00115 	stw	ra,4(sp)
	alt_printf( "  nint     : %x\n", f->nint ) ;
     40c:	0002ca40 	call	2ca4 <alt_printf>
	alt_printf( "  nfrac    : %x\n", f->nfrac ) ;
     410:	81400117 	ldw	r5,4(r16)
     414:	01000034 	movhi	r4,0
     418:	210c4904 	addi	r4,r4,12580
     41c:	0002ca40 	call	2ca4 <alt_printf>
	alt_printf( "  freqsel  : %x\n", f->freqsel ) ;
     420:	81400203 	ldbu	r5,8(r16)
     424:	01000034 	movhi	r4,0
     428:	210c4e04 	addi	r4,r4,12600

    //nint = floor( 2^(freqsel(2:0)-3) * f_lo / f_ref)
    //nfrac = floor(2^23 * (((x*f_lo)/f_ref) -nint))
    
}
     42c:	dfc00117 	ldw	ra,4(sp)
     430:	dc000017 	ldw	r16,0(sp)
     434:	dec00204 	addi	sp,sp,8
// Print a frequency structure
void lms_print_frequency( lms_freq_t *f )
{
	alt_printf( "  nint     : %x\n", f->nint ) ;
	alt_printf( "  nfrac    : %x\n", f->nfrac ) ;
	alt_printf( "  freqsel  : %x\n", f->freqsel ) ;
     438:	0002ca41 	jmpi	2ca4 <alt_printf>

0000043c <lms_spi_write>:
	return ;
}

// SPI Write
void lms_spi_write( uint8_t address, uint8_t val )
{
     43c:	defff904 	addi	sp,sp,-28
     440:	dc400515 	stw	r17,20(sp)
     444:	dc000415 	stw	r16,16(sp)
     448:	2823883a 	mov	r17,r5
     44c:	2021883a 	mov	r16,r4
	if( LMS_VERBOSE )
	{
		alt_printf( "w-addr: %x data: %x\n", address, val ) ;
     450:	81403fcc 	andi	r5,r16,255
     454:	89803fcc 	andi	r6,r17,255
     458:	01000034 	movhi	r4,0
     45c:	210c5304 	addi	r4,r4,12620
	return ;
}

// SPI Write
void lms_spi_write( uint8_t address, uint8_t val )
{
     460:	dfc00615 	stw	ra,24(sp)
	if( LMS_VERBOSE )
	{
		alt_printf( "w-addr: %x data: %x\n", address, val ) ;
     464:	0002ca40 	call	2ca4 <alt_printf>
	/*if( address > 0x7f )
	{
		alt_printf( "Invalid write address: %x\n", address ) ;
	} else*/ 
    {
		uint8_t data[2] = { address |= LMS_WRITE, val } ;
     468:	00bfe004 	movi	r2,-128
     46c:	80a0b03a 	or	r16,r16,r2
		alt_avalon_spi_command( SPI_0_BASE, 0, 2, data, 0, 0, 0 ) ;
     470:	010000b4 	movhi	r4,2
     474:	21040004 	addi	r4,r4,4096
     478:	000b883a 	mov	r5,zero
     47c:	01800084 	movi	r6,2
     480:	d9c00304 	addi	r7,sp,12
	/*if( address > 0x7f )
	{
		alt_printf( "Invalid write address: %x\n", address ) ;
	} else*/ 
    {
		uint8_t data[2] = { address |= LMS_WRITE, val } ;
     484:	dc000305 	stb	r16,12(sp)
     488:	dc400345 	stb	r17,13(sp)
		alt_avalon_spi_command( SPI_0_BASE, 0, 2, data, 0, 0, 0 ) ;
     48c:	d8000015 	stw	zero,0(sp)
     490:	d8000115 	stw	zero,4(sp)
     494:	d8000215 	stw	zero,8(sp)
     498:	0002f400 	call	2f40 <alt_avalon_spi_command>
	}
	return ;
}
     49c:	dfc00617 	ldw	ra,24(sp)
     4a0:	dc400517 	ldw	r17,20(sp)
     4a4:	dc000417 	ldw	r16,16(sp)
     4a8:	dec00704 	addi	sp,sp,28
     4ac:	f800283a 	ret

000004b0 <lms_lpf_init>:

	return ;
}

void lms_lpf_init(void)
{
     4b0:	defffe04 	addi	sp,sp,-8
     4b4:	dc000015 	stw	r16,0(sp)
	lms_spi_write( 0x06, 0x0d ) ;
     4b8:	01000184 	movi	r4,6
	lms_spi_write( 0x17, 0x43 ) ;
     4bc:	040010c4 	movi	r16,67
	return ;
}

void lms_lpf_init(void)
{
	lms_spi_write( 0x06, 0x0d ) ;
     4c0:	01400344 	movi	r5,13

	return ;
}

void lms_lpf_init(void)
{
     4c4:	dfc00115 	stw	ra,4(sp)
	lms_spi_write( 0x06, 0x0d ) ;
     4c8:	000043c0 	call	43c <lms_spi_write>
	lms_spi_write( 0x17, 0x43 ) ;
     4cc:	800b883a 	mov	r5,r16
     4d0:	010005c4 	movi	r4,23
     4d4:	000043c0 	call	43c <lms_spi_write>
	lms_spi_write( 0x27, 0x43 ) ;
     4d8:	800b883a 	mov	r5,r16
     4dc:	010009c4 	movi	r4,39
     4e0:	000043c0 	call	43c <lms_spi_write>
	lms_spi_write( 0x41, 0x1f ) ;
     4e4:	01001044 	movi	r4,65
     4e8:	014007c4 	movi	r5,31
     4ec:	000043c0 	call	43c <lms_spi_write>
	lms_spi_write( 0x44, 1<<3 ) ;
	//lms_spi_write( 0x45, 0x1f<<3 ) ;
	lms_spi_write( 0x48, 0xc  ) ;
     4f0:	04000304 	movi	r16,12
{
	lms_spi_write( 0x06, 0x0d ) ;
	lms_spi_write( 0x17, 0x43 ) ;
	lms_spi_write( 0x27, 0x43 ) ;
	lms_spi_write( 0x41, 0x1f ) ;
	lms_spi_write( 0x44, 1<<3 ) ;
     4f4:	01001104 	movi	r4,68
     4f8:	01400204 	movi	r5,8
     4fc:	000043c0 	call	43c <lms_spi_write>
	//lms_spi_write( 0x45, 0x1f<<3 ) ;
	lms_spi_write( 0x48, 0xc  ) ;
     500:	800b883a 	mov	r5,r16
     504:	01001204 	movi	r4,72
     508:	000043c0 	call	43c <lms_spi_write>
	lms_spi_write( 0x49, 0xc ) ;
     50c:	800b883a 	mov	r5,r16
     510:	01001244 	movi	r4,73
	return ;
}
     514:	dfc00117 	ldw	ra,4(sp)
     518:	dc000017 	ldw	r16,0(sp)
     51c:	dec00204 	addi	sp,sp,8
	lms_spi_write( 0x27, 0x43 ) ;
	lms_spi_write( 0x41, 0x1f ) ;
	lms_spi_write( 0x44, 1<<3 ) ;
	//lms_spi_write( 0x45, 0x1f<<3 ) ;
	lms_spi_write( 0x48, 0xc  ) ;
	lms_spi_write( 0x49, 0xc ) ;
     520:	000043c1 	jmpi	43c <lms_spi_write>

00000524 <lms_calibrate_dc>:
        lms_spi_read( lms_reg_dumpset[i], &data ) ;
    }
}

void lms_calibrate_dc(void)
{
     524:	defff604 	addi	sp,sp,-40
     528:	dc800215 	stw	r18,8(sp)
	// RX path
	lms_spi_write( 0x09, 0x8c ) ; // CLK_EN[3]
     52c:	04800244 	movi	r18,9
        lms_spi_read( lms_reg_dumpset[i], &data ) ;
    }
}

void lms_calibrate_dc(void)
{
     530:	dd400515 	stw	r21,20(sp)
     534:	dd000415 	stw	r20,16(sp)
	// RX path
	lms_spi_write( 0x09, 0x8c ) ; // CLK_EN[3]
	lms_spi_write( 0x43, 0x08 ) ; // I filter
     538:	05400204 	movi	r21,8
     53c:	050010c4 	movi	r20,67
}

void lms_calibrate_dc(void)
{
	// RX path
	lms_spi_write( 0x09, 0x8c ) ; // CLK_EN[3]
     540:	9009883a 	mov	r4,r18
     544:	01402304 	movi	r5,140
        lms_spi_read( lms_reg_dumpset[i], &data ) ;
    }
}

void lms_calibrate_dc(void)
{
     548:	dfc00915 	stw	ra,36(sp)
     54c:	df000815 	stw	fp,32(sp)
     550:	ddc00715 	stw	r23,28(sp)
	// RX path
	lms_spi_write( 0x09, 0x8c ) ; // CLK_EN[3]
	lms_spi_write( 0x43, 0x08 ) ; // I filter
	lms_spi_write( 0x43, 0x28 ) ; // Start Calibration
     554:	07000a04 	movi	fp,40
        lms_spi_read( lms_reg_dumpset[i], &data ) ;
    }
}

void lms_calibrate_dc(void)
{
     558:	dd800615 	stw	r22,24(sp)
     55c:	dcc00315 	stw	r19,12(sp)
     560:	dc400115 	stw	r17,4(sp)
     564:	dc000015 	stw	r16,0(sp)
	// RX path
	lms_spi_write( 0x09, 0x8c ) ; // CLK_EN[3]
     568:	000043c0 	call	43c <lms_spi_write>
	lms_spi_write( 0x43, 0x08 ) ; // I filter
     56c:	a009883a 	mov	r4,r20
     570:	a80b883a 	mov	r5,r21
     574:	000043c0 	call	43c <lms_spi_write>
	lms_spi_write( 0x43, 0x28 ) ; // Start Calibration
     578:	a009883a 	mov	r4,r20
     57c:	e00b883a 	mov	r5,fp
     580:	000043c0 	call	43c <lms_spi_write>
	lms_spi_write( 0x43, 0x08 ) ; // Stop calibration
     584:	a009883a 	mov	r4,r20
     588:	a80b883a 	mov	r5,r21
     58c:	000043c0 	call	43c <lms_spi_write>

	lms_spi_write( 0x43, 0x09 ) ; // Q Filter
     590:	a009883a 	mov	r4,r20
     594:	900b883a 	mov	r5,r18
     598:	000043c0 	call	43c <lms_spi_write>
	lms_spi_write( 0x43, 0x29 ) ;
     59c:	a009883a 	mov	r4,r20
     5a0:	01400a44 	movi	r5,41
     5a4:	000043c0 	call	43c <lms_spi_write>
	lms_spi_write( 0x43, 0x09 ) ;

	lms_spi_write( 0x09, 0x84 ) ;
     5a8:	05802104 	movi	r22,132
	lms_spi_write( 0x43, 0x28 ) ; // Start Calibration
	lms_spi_write( 0x43, 0x08 ) ; // Stop calibration

	lms_spi_write( 0x43, 0x09 ) ; // Q Filter
	lms_spi_write( 0x43, 0x29 ) ;
	lms_spi_write( 0x43, 0x09 ) ;
     5ac:	a009883a 	mov	r4,r20
     5b0:	900b883a 	mov	r5,r18
     5b4:	000043c0 	call	43c <lms_spi_write>

	lms_spi_write( 0x09, 0x84 ) ;
     5b8:	b00b883a 	mov	r5,r22
     5bc:	9009883a 	mov	r4,r18
     5c0:	000043c0 	call	43c <lms_spi_write>

	lms_spi_write( 0x09, 0x94 ) ; // CLK_EN[4]
	lms_spi_write( 0x66, 0x00 ) ; // Enable comparators
     5c4:	05c01984 	movi	r23,102
	lms_spi_write( 0x43, 0x29 ) ;
	lms_spi_write( 0x43, 0x09 ) ;

	lms_spi_write( 0x09, 0x84 ) ;

	lms_spi_write( 0x09, 0x94 ) ; // CLK_EN[4]
     5c8:	9009883a 	mov	r4,r18
     5cc:	01402504 	movi	r5,148
	lms_spi_write( 0x66, 0x00 ) ; // Enable comparators

	lms_spi_write( 0x63, 0x08 ) ; // DC reference module
     5d0:	040018c4 	movi	r16,99
	lms_spi_write( 0x43, 0x29 ) ;
	lms_spi_write( 0x43, 0x09 ) ;

	lms_spi_write( 0x09, 0x84 ) ;

	lms_spi_write( 0x09, 0x94 ) ; // CLK_EN[4]
     5d4:	000043c0 	call	43c <lms_spi_write>
	lms_spi_write( 0x66, 0x00 ) ; // Enable comparators
     5d8:	b809883a 	mov	r4,r23
     5dc:	000b883a 	mov	r5,zero
     5e0:	000043c0 	call	43c <lms_spi_write>

	lms_spi_write( 0x63, 0x08 ) ; // DC reference module
     5e4:	8009883a 	mov	r4,r16
     5e8:	a80b883a 	mov	r5,r21
     5ec:	000043c0 	call	43c <lms_spi_write>
	lms_spi_write( 0x63, 0x28 ) ;
     5f0:	8009883a 	mov	r4,r16
     5f4:	e00b883a 	mov	r5,fp
     5f8:	000043c0 	call	43c <lms_spi_write>
	lms_spi_write( 0x63, 0x08 ) ;
     5fc:	8009883a 	mov	r4,r16
     600:	a80b883a 	mov	r5,r21
     604:	000043c0 	call	43c <lms_spi_write>

	lms_spi_write( 0x63, 0x09 ) ;
     608:	8009883a 	mov	r4,r16
     60c:	900b883a 	mov	r5,r18
     610:	000043c0 	call	43c <lms_spi_write>
	lms_spi_write( 0x63, 0x29 ) ;
     614:	8009883a 	mov	r4,r16
     618:	01400a44 	movi	r5,41
     61c:	000043c0 	call	43c <lms_spi_write>
	lms_spi_write( 0x63, 0x09 ) ;

	lms_spi_write( 0x63, 0x0a ) ;
     620:	04c00284 	movi	r19,10
	lms_spi_write( 0x63, 0x28 ) ;
	lms_spi_write( 0x63, 0x08 ) ;

	lms_spi_write( 0x63, 0x09 ) ;
	lms_spi_write( 0x63, 0x29 ) ;
	lms_spi_write( 0x63, 0x09 ) ;
     624:	8009883a 	mov	r4,r16
     628:	900b883a 	mov	r5,r18
     62c:	000043c0 	call	43c <lms_spi_write>

	lms_spi_write( 0x63, 0x0a ) ;
     630:	980b883a 	mov	r5,r19
     634:	8009883a 	mov	r4,r16
     638:	000043c0 	call	43c <lms_spi_write>
	lms_spi_write( 0x63, 0x2a ) ;
     63c:	8009883a 	mov	r4,r16
     640:	01400a84 	movi	r5,42
     644:	000043c0 	call	43c <lms_spi_write>
	lms_spi_write( 0x63, 0x0a ) ;

	lms_spi_write( 0x63, 0x0b ) ;
     648:	044002c4 	movi	r17,11
	lms_spi_write( 0x63, 0x29 ) ;
	lms_spi_write( 0x63, 0x09 ) ;

	lms_spi_write( 0x63, 0x0a ) ;
	lms_spi_write( 0x63, 0x2a ) ;
	lms_spi_write( 0x63, 0x0a ) ;
     64c:	8009883a 	mov	r4,r16
     650:	980b883a 	mov	r5,r19
     654:	000043c0 	call	43c <lms_spi_write>

	lms_spi_write( 0x63, 0x0b ) ;
     658:	880b883a 	mov	r5,r17
     65c:	8009883a 	mov	r4,r16
     660:	000043c0 	call	43c <lms_spi_write>
	lms_spi_write( 0x63, 0x2b ) ;
     664:	8009883a 	mov	r4,r16
     668:	01400ac4 	movi	r5,43
     66c:	000043c0 	call	43c <lms_spi_write>
	lms_spi_write( 0x63, 0x0b ) ;
     670:	8009883a 	mov	r4,r16
     674:	880b883a 	mov	r5,r17

	lms_spi_write( 0x63, 0x0c ) ;
     678:	04400304 	movi	r17,12
	lms_spi_write( 0x63, 0x2a ) ;
	lms_spi_write( 0x63, 0x0a ) ;

	lms_spi_write( 0x63, 0x0b ) ;
	lms_spi_write( 0x63, 0x2b ) ;
	lms_spi_write( 0x63, 0x0b ) ;
     67c:	000043c0 	call	43c <lms_spi_write>

	lms_spi_write( 0x63, 0x0c ) ;
     680:	880b883a 	mov	r5,r17
     684:	8009883a 	mov	r4,r16
     688:	000043c0 	call	43c <lms_spi_write>
	lms_spi_write( 0x63, 0x2c ) ;
     68c:	8009883a 	mov	r4,r16
     690:	01400b04 	movi	r5,44
     694:	000043c0 	call	43c <lms_spi_write>
	lms_spi_write( 0x63, 0x0c ) ;
     698:	8009883a 	mov	r4,r16
     69c:	880b883a 	mov	r5,r17
     6a0:	000043c0 	call	43c <lms_spi_write>

	lms_spi_write( 0x66, 0x0a ) ;
     6a4:	b809883a 	mov	r4,r23
     6a8:	980b883a 	mov	r5,r19
     6ac:	000043c0 	call	43c <lms_spi_write>
	lms_spi_write( 0x09, 0x84 ) ;

	// TX path
	lms_spi_write( 0x57, 0x04 ) ;
     6b0:	044015c4 	movi	r17,87
	lms_spi_write( 0x63, 0x0c ) ;
	lms_spi_write( 0x63, 0x2c ) ;
	lms_spi_write( 0x63, 0x0c ) ;

	lms_spi_write( 0x66, 0x0a ) ;
	lms_spi_write( 0x09, 0x84 ) ;
     6b4:	9009883a 	mov	r4,r18
     6b8:	b00b883a 	mov	r5,r22
     6bc:	000043c0 	call	43c <lms_spi_write>

	// TX path
	lms_spi_write( 0x57, 0x04 ) ;
	lms_spi_write( 0x09, 0x42 ) ;
     6c0:	04c01084 	movi	r19,66

	lms_spi_write( 0x66, 0x0a ) ;
	lms_spi_write( 0x09, 0x84 ) ;

	// TX path
	lms_spi_write( 0x57, 0x04 ) ;
     6c4:	8809883a 	mov	r4,r17
     6c8:	01400104 	movi	r5,4
	lms_spi_write( 0x09, 0x42 ) ;

	lms_spi_write( 0x33, 0x08 ) ;
     6cc:	04000cc4 	movi	r16,51

	lms_spi_write( 0x66, 0x0a ) ;
	lms_spi_write( 0x09, 0x84 ) ;

	// TX path
	lms_spi_write( 0x57, 0x04 ) ;
     6d0:	000043c0 	call	43c <lms_spi_write>
	lms_spi_write( 0x09, 0x42 ) ;
     6d4:	9009883a 	mov	r4,r18
     6d8:	980b883a 	mov	r5,r19
     6dc:	000043c0 	call	43c <lms_spi_write>

	lms_spi_write( 0x33, 0x08 ) ;
     6e0:	8009883a 	mov	r4,r16
     6e4:	a80b883a 	mov	r5,r21
     6e8:	000043c0 	call	43c <lms_spi_write>
	lms_spi_write( 0x33, 0x28 ) ;
     6ec:	8009883a 	mov	r4,r16
     6f0:	e00b883a 	mov	r5,fp
     6f4:	000043c0 	call	43c <lms_spi_write>
	lms_spi_write( 0x33, 0x08 ) ;
     6f8:	8009883a 	mov	r4,r16
     6fc:	a80b883a 	mov	r5,r21
     700:	000043c0 	call	43c <lms_spi_write>

	lms_spi_write( 0x33, 0x09 ) ;
     704:	8009883a 	mov	r4,r16
     708:	900b883a 	mov	r5,r18
     70c:	000043c0 	call	43c <lms_spi_write>
	lms_spi_write( 0x33, 0x29 ) ;
     710:	8009883a 	mov	r4,r16
     714:	01400a44 	movi	r5,41
     718:	000043c0 	call	43c <lms_spi_write>
	lms_spi_write( 0x33, 0x09 ) ;
     71c:	8009883a 	mov	r4,r16
     720:	900b883a 	mov	r5,r18
     724:	000043c0 	call	43c <lms_spi_write>

	lms_spi_write( 0x57, 0x84 ) ;
     728:	8809883a 	mov	r4,r17
     72c:	b00b883a 	mov	r5,r22
     730:	000043c0 	call	43c <lms_spi_write>
	lms_spi_write( 0x09, 0x81 ) ;
     734:	9009883a 	mov	r4,r18
     738:	01402044 	movi	r5,129
     73c:	000043c0 	call	43c <lms_spi_write>

	lms_spi_write( 0x42, 0x77 ) ;
     740:	9809883a 	mov	r4,r19
     744:	01401dc4 	movi	r5,119
     748:	000043c0 	call	43c <lms_spi_write>
	lms_spi_write( 0x43, 0x7f ) ;
     74c:	a009883a 	mov	r4,r20
     750:	01401fc4 	movi	r5,127

	return ;
}
     754:	dfc00917 	ldw	ra,36(sp)
     758:	df000817 	ldw	fp,32(sp)
     75c:	ddc00717 	ldw	r23,28(sp)
     760:	dd800617 	ldw	r22,24(sp)
     764:	dd400517 	ldw	r21,20(sp)
     768:	dd000417 	ldw	r20,16(sp)
     76c:	dcc00317 	ldw	r19,12(sp)
     770:	dc800217 	ldw	r18,8(sp)
     774:	dc400117 	ldw	r17,4(sp)
     778:	dc000017 	ldw	r16,0(sp)
     77c:	dec00a04 	addi	sp,sp,40

	lms_spi_write( 0x57, 0x84 ) ;
	lms_spi_write( 0x09, 0x81 ) ;

	lms_spi_write( 0x42, 0x77 ) ;
	lms_spi_write( 0x43, 0x7f ) ;
     780:	000043c1 	jmpi	43c <lms_spi_write>

00000784 <lms_rxvga2_set_gain>:
	return ;
}

// Set the gain on RXVGA2
void lms_rxvga2_set_gain( uint8_t gain )
{
     784:	defffe04 	addi	sp,sp,-8
     788:	dc000015 	stw	r16,0(sp)
	// NOTE: Gain is calculated as gain*3dB and shouldn't really
	// go above 30dB
	if( (gain&0x1f) > 10 )
     78c:	00800284 	movi	r2,10
     790:	240007cc 	andi	r16,r4,31
	return ;
}

// Set the gain on RXVGA2
void lms_rxvga2_set_gain( uint8_t gain )
{
     794:	dfc00115 	stw	ra,4(sp)
	// NOTE: Gain is calculated as gain*3dB and shouldn't really
	// go above 30dB
	if( (gain&0x1f) > 10 )
	{
		alt_putstr( "Setting gain above 30dB? You crazy!!\n" ) ;
     798:	01000034 	movhi	r4,0
     79c:	210c5904 	addi	r4,r4,12644
// Set the gain on RXVGA2
void lms_rxvga2_set_gain( uint8_t gain )
{
	// NOTE: Gain is calculated as gain*3dB and shouldn't really
	// go above 30dB
	if( (gain&0x1f) > 10 )
     7a0:	1400010e 	bge	r2,r16,7a8 <lms_rxvga2_set_gain+0x24>
	{
		alt_putstr( "Setting gain above 30dB? You crazy!!\n" ) ;
     7a4:	0002e380 	call	2e38 <alt_putstr>
	}
	lms_spi_write( 0x65, (0x1f)&gain ) ;
     7a8:	800b883a 	mov	r5,r16
     7ac:	01001944 	movi	r4,101
	return ;
}
     7b0:	dfc00117 	ldw	ra,4(sp)
     7b4:	dc000017 	ldw	r16,0(sp)
     7b8:	dec00204 	addi	sp,sp,8
	// go above 30dB
	if( (gain&0x1f) > 10 )
	{
		alt_putstr( "Setting gain above 30dB? You crazy!!\n" ) ;
	}
	lms_spi_write( 0x65, (0x1f)&gain ) ;
     7bc:	000043c1 	jmpi	43c <lms_spi_write>

000007c0 <lms_rxvga1_enable>:

// Enable RXVGA1
void lms_rxvga1_enable()
{
	// Set bias current to nominal
	lms_spi_write( 0x7b, 0x33 ) ;
     7c0:	01001ec4 	movi	r4,123
     7c4:	01400cc4 	movi	r5,51
     7c8:	000043c1 	jmpi	43c <lms_spi_write>

000007cc <lms_rxvga1_disable>:

// Disable RXVGA1
void lms_rxvga1_disable()
{
	// Set bias current to 0
	lms_spi_write( 0x7b, 0x03 ) ;
     7cc:	01001ec4 	movi	r4,123
     7d0:	014000c4 	movi	r5,3
     7d4:	000043c1 	jmpi	43c <lms_spi_write>

000007d8 <lms_soft_reset>:
	return ;
}

// Soft reset of the LMS
void lms_soft_reset( )
{
     7d8:	defffe04 	addi	sp,sp,-8
     7dc:	dc000015 	stw	r16,0(sp)
	lms_spi_write( 0x05, 0x12 ) ;
     7e0:	04000144 	movi	r16,5
     7e4:	8009883a 	mov	r4,r16
     7e8:	01400484 	movi	r5,18
	return ;
}

// Soft reset of the LMS
void lms_soft_reset( )
{
     7ec:	dfc00115 	stw	ra,4(sp)
	lms_spi_write( 0x05, 0x12 ) ;
     7f0:	000043c0 	call	43c <lms_spi_write>
	lms_spi_write( 0x05, 0x32 ) ;
     7f4:	8009883a 	mov	r4,r16
     7f8:	01400c84 	movi	r5,50
	return ;
}
     7fc:	dfc00117 	ldw	ra,4(sp)
     800:	dc000017 	ldw	r16,0(sp)
     804:	dec00204 	addi	sp,sp,8

// Soft reset of the LMS
void lms_soft_reset( )
{
	lms_spi_write( 0x05, 0x12 ) ;
	lms_spi_write( 0x05, 0x32 ) ;
     808:	000043c1 	jmpi	43c <lms_spi_write>

0000080c <lms_lpf_disable>:
}

// Disable the LPF for a specific module
void lms_lpf_disable( lms_module_t mod )
{
	uint8_t reg = (mod == RX) ? 0x54 : 0x34 ;
     80c:	00801504 	movi	r2,84
     810:	20000126 	beq	r4,zero,818 <lms_lpf_disable+0xc>
     814:	00800d04 	movi	r2,52
	lms_spi_write( reg, 0x00 ) ;
     818:	11003fcc 	andi	r4,r2,255
     81c:	000b883a 	mov	r5,zero
     820:	000043c1 	jmpi	43c <lms_spi_write>

00000824 <lms_spi_read>:

// SPI Read
void lms_spi_read( uint8_t address, uint8_t *val )
{
	uint8_t rv ;
	if( address > 0x7f )
     824:	20c03fcc 	andi	r3,r4,255
     828:	18803fcc 	andi	r2,r3,255
	return ;
}

// SPI Read
void lms_spi_read( uint8_t address, uint8_t *val )
{
     82c:	defff904 	addi	sp,sp,-28
	uint8_t rv ;
	if( address > 0x7f )
     830:	1080201c 	xori	r2,r2,128
	return ;
}

// SPI Read
void lms_spi_read( uint8_t address, uint8_t *val )
{
     834:	dc000415 	stw	r16,16(sp)
	uint8_t rv ;
	if( address > 0x7f )
     838:	10bfe004 	addi	r2,r2,-128
	{
		alt_printf( "Invalid read address: %x\n", address ) ;
	} else {
		alt_avalon_spi_command( SPI_0_BASE, 0, 1, &address, 0, 0, ALT_AVALON_SPI_COMMAND_MERGE ) ;
     83c:	04000044 	movi	r16,1
	return ;
}

// SPI Read
void lms_spi_read( uint8_t address, uint8_t *val )
{
     840:	dc400515 	stw	r17,20(sp)
     844:	d9000305 	stb	r4,12(sp)
     848:	2823883a 	mov	r17,r5
     84c:	dfc00615 	stw	ra,24(sp)
	uint8_t rv ;
	if( address > 0x7f )
	{
		alt_printf( "Invalid read address: %x\n", address ) ;
	} else {
		alt_avalon_spi_command( SPI_0_BASE, 0, 1, &address, 0, 0, ALT_AVALON_SPI_COMMAND_MERGE ) ;
     850:	010000b4 	movhi	r4,2
     854:	21040004 	addi	r4,r4,4096
     858:	800d883a 	mov	r6,r16
     85c:	d9c00304 	addi	r7,sp,12
     860:	000b883a 	mov	r5,zero

// SPI Read
void lms_spi_read( uint8_t address, uint8_t *val )
{
	uint8_t rv ;
	if( address > 0x7f )
     864:	1000050e 	bge	r2,zero,87c <lms_spi_read+0x58>
	{
		alt_printf( "Invalid read address: %x\n", address ) ;
     868:	19403fcc 	andi	r5,r3,255
     86c:	01000034 	movhi	r4,0
     870:	210c6304 	addi	r4,r4,12684
     874:	0002ca40 	call	2ca4 <alt_printf>
     878:	00001206 	br	8c4 <lms_spi_read+0xa0>
	} else {
		alt_avalon_spi_command( SPI_0_BASE, 0, 1, &address, 0, 0, ALT_AVALON_SPI_COMMAND_MERGE ) ;
     87c:	d8000015 	stw	zero,0(sp)
     880:	d8000115 	stw	zero,4(sp)
     884:	dc000215 	stw	r16,8(sp)
     888:	0002f400 	call	2f40 <alt_avalon_spi_command>
		rv = alt_avalon_spi_command( SPI_0_BASE, 0, 0, 0, 1, val, 0 ) ;
     88c:	010000b4 	movhi	r4,2
     890:	21040004 	addi	r4,r4,4096
     894:	000b883a 	mov	r5,zero
     898:	000d883a 	mov	r6,zero
     89c:	000f883a 	mov	r7,zero
     8a0:	dc000015 	stw	r16,0(sp)
     8a4:	dc400115 	stw	r17,4(sp)
     8a8:	d8000215 	stw	zero,8(sp)
     8ac:	0002f400 	call	2f40 <alt_avalon_spi_command>
		if( rv != 1 )
     8b0:	10803fcc 	andi	r2,r2,255
		{
			alt_putstr( "SPI data read did not work :(\n") ;
     8b4:	01000034 	movhi	r4,0
     8b8:	210c6a04 	addi	r4,r4,12712
	{
		alt_printf( "Invalid read address: %x\n", address ) ;
	} else {
		alt_avalon_spi_command( SPI_0_BASE, 0, 1, &address, 0, 0, ALT_AVALON_SPI_COMMAND_MERGE ) ;
		rv = alt_avalon_spi_command( SPI_0_BASE, 0, 0, 0, 1, val, 0 ) ;
		if( rv != 1 )
     8bc:	14000126 	beq	r2,r16,8c4 <lms_spi_read+0xa0>
		{
			alt_putstr( "SPI data read did not work :(\n") ;
     8c0:	0002e380 	call	2e38 <alt_putstr>
		}
	}
	if( LMS_VERBOSE )
	{
		alt_printf( "r-addr: %x data: %x\n", address, *val ) ;
     8c4:	89800003 	ldbu	r6,0(r17)
     8c8:	d9400303 	ldbu	r5,12(sp)
     8cc:	01000034 	movhi	r4,0
     8d0:	210c7204 	addi	r4,r4,12744
     8d4:	0002ca40 	call	2ca4 <alt_printf>
	}
	return ;
}
     8d8:	dfc00617 	ldw	ra,24(sp)
     8dc:	dc400517 	ldw	r17,20(sp)
     8e0:	dc000417 	ldw	r16,16(sp)
     8e4:	dec00704 	addi	sp,sp,28
     8e8:	f800283a 	ret

000008ec <lms_dump_registers>:

	return ;
}

void lms_dump_registers(void)
{
     8ec:	defffd04 	addi	sp,sp,-12
     8f0:	dc000115 	stw	r16,4(sp)
     8f4:	dfc00215 	stw	ra,8(sp)
     8f8:	0021883a 	mov	r16,zero
	uint8_t data,i;
    uint16_t num_reg = sizeof(lms_reg_dumpset);
    for (i = 0; i < num_reg; i++)
    {   
        lms_spi_read( lms_reg_dumpset[i], &data ) ;
     8fc:	80803fcc 	andi	r2,r16,255
     900:	00c00034 	movhi	r3,0
     904:	18ccc004 	addi	r3,r3,13056
     908:	1085883a 	add	r2,r2,r2
     90c:	10c5883a 	add	r2,r2,r3
     910:	11000003 	ldbu	r4,0(r2)
     914:	d80b883a 	mov	r5,sp

void lms_dump_registers(void)
{
	uint8_t data,i;
    uint16_t num_reg = sizeof(lms_reg_dumpset);
    for (i = 0; i < num_reg; i++)
     918:	84000044 	addi	r16,r16,1
    {   
        lms_spi_read( lms_reg_dumpset[i], &data ) ;
     91c:	00008240 	call	824 <lms_spi_read>

void lms_dump_registers(void)
{
	uint8_t data,i;
    uint16_t num_reg = sizeof(lms_reg_dumpset);
    for (i = 0; i < num_reg; i++)
     920:	80c03fcc 	andi	r3,r16,255
     924:	00802c84 	movi	r2,178
     928:	18bff41e 	bne	r3,r2,8fc <lms_dump_registers+0x10>
    {   
        lms_spi_read( lms_reg_dumpset[i], &data ) ;
    }
}
     92c:	dfc00217 	ldw	ra,8(sp)
     930:	dc000117 	ldw	r16,4(sp)
     934:	dec00304 	addi	sp,sp,12
     938:	f800283a 	ret

0000093c <lms_set_frequency>:
	return ;
}

// Set the frequency of a module
void lms_set_frequency( lms_module_t mod, uint32_t freq )
{
     93c:	defff304 	addi	sp,sp,-52
     940:	dd800b15 	stw	r22,44(sp)
     944:	dc400615 	stw	r17,24(sp)
     948:	dfc00c15 	stw	ra,48(sp)
     94c:	dd400a15 	stw	r21,40(sp)
     950:	dd000915 	stw	r20,36(sp)
     954:	dcc00815 	stw	r19,32(sp)
     958:	dc800715 	stw	r18,28(sp)
     95c:	dc000515 	stw	r16,20(sp)
     960:	202d883a 	mov	r22,r4
     964:	2823883a 	mov	r17,r5
	// Select the base address based on which PLL we are configuring
	uint8_t base = (mod == RX) ? 0x20 : 0x10 ;
     968:	20000926 	beq	r4,zero,990 <lms_set_frequency+0x54>
     96c:	05000404 	movi	r20,16
     970:	00000806 	br	994 <lms_set_frequency+0x58>
		uint8_t i = 0 ;
		while( i < 16 )
		{
			if( (lfreq > bands[i].low) && (lfreq <= bands[i].high) )
			{
				freqsel = bands[i].value ;
     974:	01400304 	movi	r5,12
     978:	00021e40 	call	21e4 <__mulsi3>
     97c:	00c00034 	movhi	r3,0
     980:	18cc9004 	addi	r3,r3,12864
     984:	10c5883a 	add	r2,r2,r3
     988:	14c00203 	ldbu	r19,8(r2)
     98c:	00001c06 	br	a00 <lms_set_frequency+0xc4>

// Set the frequency of a module
void lms_set_frequency( lms_module_t mod, uint32_t freq )
{
	// Select the base address based on which PLL we are configuring
	uint8_t base = (mod == RX) ? 0x20 : 0x10 ;
     990:	05000804 	movi	r20,32
    uint32_t x;
	uint32_t reference = 38400000 ;


	// Turn on the DSMs
	lms_spi_read( 0x09, &data ) ;
     994:	01000244 	movi	r4,9
     998:	d80b883a 	mov	r5,sp
     99c:	00008240 	call	824 <lms_spi_read>
	data |= 0x05 ;
     9a0:	d8800003 	ldbu	r2,0(sp)
	lms_spi_write( 0x09, data ) ;
     9a4:	01000244 	movi	r4,9
	uint32_t reference = 38400000 ;


	// Turn on the DSMs
	lms_spi_read( 0x09, &data ) ;
	data |= 0x05 ;
     9a8:	10800154 	ori	r2,r2,5
	lms_spi_write( 0x09, data ) ;
     9ac:	11403fcc 	andi	r5,r2,255
	uint32_t reference = 38400000 ;


	// Turn on the DSMs
	lms_spi_read( 0x09, &data ) ;
	data |= 0x05 ;
     9b0:	d8800005 	stb	r2,0(sp)
	lms_spi_write( 0x09, data ) ;
     9b4:	000043c0 	call	43c <lms_spi_write>

	// Figure out freqsel
	if( lfreq < bands[0].low )
     9b8:	00837734 	movhi	r2,3548
     9bc:	10aac7c4 	addi	r2,r2,-21729
     9c0:	14400e2e 	bgeu	r2,r17,9fc <lms_set_frequency+0xc0>
	{
		// Too low
	} else if( lfreq > bands[15].high )
     9c4:	00b76ef4 	movhi	r2,56763
     9c8:	10ac8004 	addi	r2,r2,-19968
     9cc:	14400b36 	bltu	r2,r17,9fc <lms_set_frequency+0xc0>
     9d0:	0009883a 	mov	r4,zero
     9d4:	00c00034 	movhi	r3,0
     9d8:	18cc9004 	addi	r3,r3,12864
     9dc:	01400404 	movi	r5,16
	} else
	{
		uint8_t i = 0 ;
		while( i < 16 )
		{
			if( (lfreq > bands[i].low) && (lfreq <= bands[i].high) )
     9e0:	18800017 	ldw	r2,0(r3)
     9e4:	1440022e 	bgeu	r2,r17,9f0 <lms_set_frequency+0xb4>
     9e8:	18800117 	ldw	r2,4(r3)
     9ec:	147fe12e 	bgeu	r2,r17,974 <lms_set_frequency+0x38>
			{
				freqsel = bands[i].value ;
				break ;
     9f0:	21000044 	addi	r4,r4,1
     9f4:	18c00304 	addi	r3,r3,12
	{
		// Too high!
	} else
	{
		uint8_t i = 0 ;
		while( i < 16 )
     9f8:	217ff91e 	bne	r4,r5,9e0 <lms_set_frequency+0xa4>
     9fc:	04c009c4 	movi	r19,39
			}
			i++ ;
		}
	}

    x = 1 << ((freqsel&7)-3);
     a00:	9c803fcc 	andi	r18,r19,255
     a04:	940001cc 	andi	r16,r18,7
     a08:	843fff44 	addi	r16,r16,-3
    //nint = floor( 2^(freqsel(2:0)-3) * f_lo / f_ref)
    //nfrac = floor(2^23 * (((x*f_lo)/f_ref) -nint))
    {
        uint64_t temp = (uint64_t) ((x * freq)<< 23);
     a0c:	05400044 	movi	r21,1
     a10:	ac08983a 	sll	r4,r21,r16
     a14:	880b883a 	mov	r5,r17
     a18:	00021e40 	call	21e4 <__mulsi3>
     a1c:	100495fa 	slli	r2,r2,23
        temp  = temp + reference/2;
     a20:	01804974 	movhi	r6,293
     a24:	31be0004 	addi	r6,r6,-2048

    x = 1 << ((freqsel&7)-3);
    //nint = floor( 2^(freqsel(2:0)-3) * f_lo / f_ref)
    //nfrac = floor(2^23 * (((x*f_lo)/f_ref) -nint))
    {
        uint64_t temp = (uint64_t) ((x * freq)<< 23);
     a28:	000b883a 	mov	r5,zero
     a2c:	1009883a 	mov	r4,r2
        temp  = temp + reference/2;
     a30:	1185883a 	add	r2,r2,r6
     a34:	1111803a 	cmpltu	r8,r2,r4
     a38:	4151883a 	add	r8,r8,r5
     a3c:	000f883a 	mov	r7,zero
     a40:	1009883a 	mov	r4,r2
        temp = temp/reference;
        nint = temp >> 23;
     a44:	018092b4 	movhi	r6,586
     a48:	31bc0004 	addi	r6,r6,-4096
    x = 1 << ((freqsel&7)-3);
    //nint = floor( 2^(freqsel(2:0)-3) * f_lo / f_ref)
    //nfrac = floor(2^23 * (((x*f_lo)/f_ref) -nint))
    {
        uint64_t temp = (uint64_t) ((x * freq)<< 23);
        temp  = temp + reference/2;
     a4c:	400b883a 	mov	r5,r8
        temp = temp/reference;
        nint = temp >> 23;
     a50:	0001a2c0 	call	1a2c <__udivdi3>
        nfrac = temp - (nint << 23);

    }
	nfrac = (lfreq>>2) - (lfreq>>5) - (lfreq>>12) ;
     a54:	8810d17a 	srli	r8,r17,5
     a58:	880cd0ba 	srli	r6,r17,2
     a5c:	880ed33a 	srli	r7,r17,12
    //nfrac = floor(2^23 * (((x*f_lo)/f_ref) -nint))
    {
        uint64_t temp = (uint64_t) ((x * freq)<< 23);
        temp  = temp + reference/2;
        temp = temp/reference;
        nint = temp >> 23;
     a60:	1812927a 	slli	r9,r3,9
        nfrac = temp - (nint << 23);

    }
	nfrac = (lfreq>>2) - (lfreq>>5) - (lfreq>>12) ;
     a64:	320dc83a 	sub	r6,r6,r8
    //nfrac = floor(2^23 * (((x*f_lo)/f_ref) -nint))
    {
        uint64_t temp = (uint64_t) ((x * freq)<< 23);
        temp  = temp + reference/2;
        temp = temp/reference;
        nint = temp >> 23;
     a68:	1004d5fa 	srli	r2,r2,23
        nfrac = temp - (nint << 23);

    }
	nfrac = (lfreq>>2) - (lfreq>>5) - (lfreq>>12) ;
     a6c:	31cdc83a 	sub	r6,r6,r7
	nfrac <<= ((freqsel&7)-3) ;
     a70:	3420983a 	sll	r16,r6,r16
    //nfrac = floor(2^23 * (((x*f_lo)/f_ref) -nint))
    {
        uint64_t temp = (uint64_t) ((x * freq)<< 23);
        temp  = temp + reference/2;
        temp = temp/reference;
        nint = temp >> 23;
     a74:	4884b03a 	or	r2,r9,r2
	nfrac <<= ((freqsel&7)-3) ;

	f.nint = nint ;
	f.nfrac = nfrac ;
	f.freqsel = freqsel ;
	lms_print_frequency( &f ) ;
     a78:	d9000104 	addi	r4,sp,4
	nfrac = (lfreq>>2) - (lfreq>>5) - (lfreq>>12) ;
	nfrac <<= ((freqsel&7)-3) ;

	f.nint = nint ;
	f.nfrac = nfrac ;
	f.freqsel = freqsel ;
     a7c:	dcc00305 	stb	r19,12(sp)

    }
	nfrac = (lfreq>>2) - (lfreq>>5) - (lfreq>>12) ;
	nfrac <<= ((freqsel&7)-3) ;

	f.nint = nint ;
     a80:	d880010d 	sth	r2,4(sp)
	f.nfrac = nfrac ;
     a84:	dc000215 	stw	r16,8(sp)
    //nfrac = floor(2^23 * (((x*f_lo)/f_ref) -nint))
    {
        uint64_t temp = (uint64_t) ((x * freq)<< 23);
        temp  = temp + reference/2;
        temp = temp/reference;
        nint = temp >> 23;
     a88:	1027883a 	mov	r19,r2
	nfrac <<= ((freqsel&7)-3) ;

	f.nint = nint ;
	f.nfrac = nfrac ;
	f.freqsel = freqsel ;
	lms_print_frequency( &f ) ;
     a8c:	00003f00 	call	3f0 <lms_print_frequency>

	// Program freqsel, selout (rx only), nint and nfrac
	if( mod == RX )
     a90:	b000081e 	bne	r22,zero,ab4 <lms_set_frequency+0x178>
	{
		lms_spi_write( base+5, freqsel<<2 | (freq < 1500000000 ? 1 : 2 ) ) ;
     a94:	00965a34 	movhi	r2,22888
     a98:	108bbfc4 	addi	r2,r2,12031
     a9c:	1445803a 	cmpltu	r2,r2,r17
     aa0:	948b883a 	add	r5,r18,r18
     aa4:	1545883a 	add	r2,r2,r21
     aa8:	294b883a 	add	r5,r5,r5
     aac:	288ab03a 	or	r5,r5,r2
     ab0:	00000906 	br	ad8 <lms_set_frequency+0x19c>
	} else {
//		lms_spi_write( base+5, freqsel<<2 ) ;
		lms_spi_write( base+5, freqsel<<2 | (freq < 1500000000 ? 1 : 2 ) ) ;
     ab4:	00965a34 	movhi	r2,22888
     ab8:	108bbfc4 	addi	r2,r2,12031
     abc:	14400236 	bltu	r2,r17,ac8 <lms_set_frequency+0x18c>
     ac0:	a809883a 	mov	r4,r21
     ac4:	00000106 	br	acc <lms_set_frequency+0x190>
     ac8:	01000084 	movi	r4,2
     acc:	948b883a 	add	r5,r18,r18
     ad0:	294b883a 	add	r5,r5,r5
     ad4:	290ab03a 	or	r5,r5,r4
     ad8:	a1000144 	addi	r4,r20,5
     adc:	21003fcc 	andi	r4,r4,255
     ae0:	29403fcc 	andi	r5,r5,255
     ae4:	000043c0 	call	43c <lms_spi_write>
	}
	data = nint>>1 ;// alt_printf( "%x\n", data ) ;
     ae8:	98bfffcc 	andi	r2,r19,65535
     aec:	1004d07a 	srli	r2,r2,1
	lms_spi_write( base+0, data ) ;
     af0:	a1003fcc 	andi	r4,r20,255
	lms_spi_write( base+3, data ) ;

	// Set the PLL Ichp, Iup and Idn currents
	lms_spi_read( base+6, &data ) ;
	data &= ~(0x1f) ;
	data |= 0x0c ;
     af4:	047ff804 	movi	r17,-32
	} else {
//		lms_spi_write( base+5, freqsel<<2 ) ;
		lms_spi_write( base+5, freqsel<<2 | (freq < 1500000000 ? 1 : 2 ) ) ;
	}
	data = nint>>1 ;// alt_printf( "%x\n", data ) ;
	lms_spi_write( base+0, data ) ;
     af8:	11403fcc 	andi	r5,r2,255
		lms_spi_write( base+5, freqsel<<2 | (freq < 1500000000 ? 1 : 2 ) ) ;
	} else {
//		lms_spi_write( base+5, freqsel<<2 ) ;
		lms_spi_write( base+5, freqsel<<2 | (freq < 1500000000 ? 1 : 2 ) ) ;
	}
	data = nint>>1 ;// alt_printf( "%x\n", data ) ;
     afc:	d8800005 	stb	r2,0(sp)
	lms_spi_write( base+0, data ) ;
     b00:	000043c0 	call	43c <lms_spi_write>
	data = ((nint&1)<<7) | ((nfrac>>16)&0x7f) ;//  alt_printf( "%x\n", data ) ;
     b04:	98c0004c 	andi	r3,r19,1
     b08:	8004d43a 	srli	r2,r16,16
     b0c:	180691fa 	slli	r3,r3,7
	lms_spi_write( base+1, data ) ;
     b10:	a1000044 	addi	r4,r20,1
//		lms_spi_write( base+5, freqsel<<2 ) ;
		lms_spi_write( base+5, freqsel<<2 | (freq < 1500000000 ? 1 : 2 ) ) ;
	}
	data = nint>>1 ;// alt_printf( "%x\n", data ) ;
	lms_spi_write( base+0, data ) ;
	data = ((nint&1)<<7) | ((nfrac>>16)&0x7f) ;//  alt_printf( "%x\n", data ) ;
     b14:	10801fcc 	andi	r2,r2,127
     b18:	1886b03a 	or	r3,r3,r2
	lms_spi_write( base+1, data ) ;
     b1c:	180b883a 	mov	r5,r3
     b20:	21003fcc 	andi	r4,r4,255
//		lms_spi_write( base+5, freqsel<<2 ) ;
		lms_spi_write( base+5, freqsel<<2 | (freq < 1500000000 ? 1 : 2 ) ) ;
	}
	data = nint>>1 ;// alt_printf( "%x\n", data ) ;
	lms_spi_write( base+0, data ) ;
	data = ((nint&1)<<7) | ((nfrac>>16)&0x7f) ;//  alt_printf( "%x\n", data ) ;
     b24:	d8c00005 	stb	r3,0(sp)
	lms_spi_write( base+1, data ) ;
     b28:	000043c0 	call	43c <lms_spi_write>
	data = ((nfrac>>8)&0xff) ;//  alt_printf( "%x\n", data ) ;
     b2c:	8004d23a 	srli	r2,r16,8
	lms_spi_write( base+2, data ) ;
     b30:	a1000084 	addi	r4,r20,2
     b34:	21003fcc 	andi	r4,r4,255
     b38:	11403fcc 	andi	r5,r2,255
	}
	data = nint>>1 ;// alt_printf( "%x\n", data ) ;
	lms_spi_write( base+0, data ) ;
	data = ((nint&1)<<7) | ((nfrac>>16)&0x7f) ;//  alt_printf( "%x\n", data ) ;
	lms_spi_write( base+1, data ) ;
	data = ((nfrac>>8)&0xff) ;//  alt_printf( "%x\n", data ) ;
     b3c:	d8800005 	stb	r2,0(sp)
	lms_spi_write( base+2, data ) ;
     b40:	000043c0 	call	43c <lms_spi_write>
	data = (nfrac&0xff) ;//  alt_printf( "%x\n", data ) ;
	lms_spi_write( base+3, data ) ;
     b44:	81403fcc 	andi	r5,r16,255
	lms_spi_write( base+0, data ) ;
	data = ((nint&1)<<7) | ((nfrac>>16)&0x7f) ;//  alt_printf( "%x\n", data ) ;
	lms_spi_write( base+1, data ) ;
	data = ((nfrac>>8)&0xff) ;//  alt_printf( "%x\n", data ) ;
	lms_spi_write( base+2, data ) ;
	data = (nfrac&0xff) ;//  alt_printf( "%x\n", data ) ;
     b48:	dc000005 	stb	r16,0(sp)
	lms_spi_write( base+3, data ) ;
     b4c:	a10000c4 	addi	r4,r20,3

	// Set the PLL Ichp, Iup and Idn currents
	lms_spi_read( base+6, &data ) ;
     b50:	a4000184 	addi	r16,r20,6
     b54:	84003fcc 	andi	r16,r16,255
	data = ((nint&1)<<7) | ((nfrac>>16)&0x7f) ;//  alt_printf( "%x\n", data ) ;
	lms_spi_write( base+1, data ) ;
	data = ((nfrac>>8)&0xff) ;//  alt_printf( "%x\n", data ) ;
	lms_spi_write( base+2, data ) ;
	data = (nfrac&0xff) ;//  alt_printf( "%x\n", data ) ;
	lms_spi_write( base+3, data ) ;
     b58:	21003fcc 	andi	r4,r4,255
     b5c:	000043c0 	call	43c <lms_spi_write>

	// Set the PLL Ichp, Iup and Idn currents
	lms_spi_read( base+6, &data ) ;
     b60:	8009883a 	mov	r4,r16
     b64:	d80b883a 	mov	r5,sp
     b68:	00008240 	call	824 <lms_spi_read>
	data &= ~(0x1f) ;
	data |= 0x0c ;
     b6c:	d8800003 	ldbu	r2,0(sp)
	lms_spi_write( base+6, data ) ;
     b70:	8009883a 	mov	r4,r16
	lms_spi_read( base+7, &data ) ;
     b74:	a40001c4 	addi	r16,r20,7
	lms_spi_write( base+3, data ) ;

	// Set the PLL Ichp, Iup and Idn currents
	lms_spi_read( base+6, &data ) ;
	data &= ~(0x1f) ;
	data |= 0x0c ;
     b78:	1444703a 	and	r2,r2,r17
     b7c:	10800314 	ori	r2,r2,12
	lms_spi_write( base+6, data ) ;
     b80:	11403b0c 	andi	r5,r2,236
	lms_spi_read( base+7, &data ) ;
     b84:	84003fcc 	andi	r16,r16,255
	lms_spi_write( base+3, data ) ;

	// Set the PLL Ichp, Iup and Idn currents
	lms_spi_read( base+6, &data ) ;
	data &= ~(0x1f) ;
	data |= 0x0c ;
     b88:	d8800005 	stb	r2,0(sp)
	lms_spi_write( base+6, data ) ;
     b8c:	000043c0 	call	43c <lms_spi_write>
	lms_spi_read( base+7, &data ) ;
     b90:	8009883a 	mov	r4,r16
     b94:	d80b883a 	mov	r5,sp
     b98:	00008240 	call	824 <lms_spi_read>
	data &= ~(0x1f) ;
	data |= 3 ;
    data = 0xe3;
	lms_spi_write( base+7, data ) ;
     b9c:	8009883a 	mov	r4,r16
	lms_spi_read( base+8, &data ) ;
     ba0:	a4000204 	addi	r16,r20,8
	data |= 0x0c ;
	lms_spi_write( base+6, data ) ;
	lms_spi_read( base+7, &data ) ;
	data &= ~(0x1f) ;
	data |= 3 ;
    data = 0xe3;
     ba4:	00bff8c4 	movi	r2,-29
	lms_spi_write( base+7, data ) ;
	lms_spi_read( base+8, &data ) ;
     ba8:	84003fcc 	andi	r16,r16,255
	lms_spi_write( base+6, data ) ;
	lms_spi_read( base+7, &data ) ;
	data &= ~(0x1f) ;
	data |= 3 ;
    data = 0xe3;
	lms_spi_write( base+7, data ) ;
     bac:	014038c4 	movi	r5,227
	data |= 0x0c ;
	lms_spi_write( base+6, data ) ;
	lms_spi_read( base+7, &data ) ;
	data &= ~(0x1f) ;
	data |= 3 ;
    data = 0xe3;
     bb0:	d8800005 	stb	r2,0(sp)
	lms_spi_write( base+7, data ) ;
     bb4:	000043c0 	call	43c <lms_spi_write>
	lms_spi_read( base+8, &data ) ;
     bb8:	8009883a 	mov	r4,r16
     bbc:	d80b883a 	mov	r5,sp
     bc0:	00008240 	call	824 <lms_spi_read>
	data &= ~(0x1f) ;
     bc4:	d8800003 	ldbu	r2,0(sp)
	lms_spi_write( base+8, data ) ;
     bc8:	8009883a 	mov	r4,r16

	// Loop through the VCOCAP to figure out optimal values
	lms_spi_read( base+9, &data ) ;
	data &= ~(0x3f) ;
     bcc:	0027883a 	mov	r19,zero
	data &= ~(0x1f) ;
	data |= 3 ;
    data = 0xe3;
	lms_spi_write( base+7, data ) ;
	lms_spi_read( base+8, &data ) ;
	data &= ~(0x1f) ;
     bd0:	1444703a 	and	r2,r2,r17
	lms_spi_write( base+8, data ) ;
     bd4:	1140380c 	andi	r5,r2,224
	data &= ~(0x1f) ;
	data |= 3 ;
    data = 0xe3;
	lms_spi_write( base+7, data ) ;
	lms_spi_read( base+8, &data ) ;
	data &= ~(0x1f) ;
     bd8:	d8800005 	stb	r2,0(sp)
	lms_spi_write( base+8, data ) ;
     bdc:	000043c0 	call	43c <lms_spi_write>

	// Loop through the VCOCAP to figure out optimal values
	lms_spi_read( base+9, &data ) ;
     be0:	a0800244 	addi	r2,r20,9
     be4:	14403fcc 	andi	r17,r2,255
     be8:	8809883a 	mov	r4,r17
     bec:	d80b883a 	mov	r5,sp
     bf0:	00008240 	call	824 <lms_spi_read>
	data &= ~(0x3f) ;
     bf4:	d8800003 	ldbu	r2,0(sp)
     bf8:	0021883a 	mov	r16,zero
     bfc:	1080300c 	andi	r2,r2,192
     c00:	d8800005 	stb	r2,0(sp)
	{
		uint8_t i, vtune, low = 64, high = 0;
		for( i = 0 ; i < 64 ; i++ )
		{
			data &= ~(0x3f) ;
			data |= i ;
     c04:	d8800003 	ldbu	r2,0(sp)
     c08:	00fff004 	movi	r3,-64
			lms_spi_write( base+9, data ) ;
     c0c:	8809883a 	mov	r4,r17
	{
		uint8_t i, vtune, low = 64, high = 0;
		for( i = 0 ; i < 64 ; i++ )
		{
			data &= ~(0x3f) ;
			data |= i ;
     c10:	10c4703a 	and	r2,r2,r3
     c14:	8084b03a 	or	r2,r16,r2
			lms_spi_write( base+9, data ) ;
     c18:	11403fcc 	andi	r5,r2,255
			lms_spi_read( base+10, &vtune ) ;
     c1c:	a4800284 	addi	r18,r20,10
	{
		uint8_t i, vtune, low = 64, high = 0;
		for( i = 0 ; i < 64 ; i++ )
		{
			data &= ~(0x3f) ;
			data |= i ;
     c20:	d8800005 	stb	r2,0(sp)
			lms_spi_write( base+9, data ) ;
     c24:	000043c0 	call	43c <lms_spi_write>
			lms_spi_read( base+10, &vtune ) ;
     c28:	91003fcc 	andi	r4,r18,255
     c2c:	d9400044 	addi	r5,sp,1
     c30:	00008240 	call	824 <lms_spi_read>
			if( (vtune&0xc0) == 0xc0 )
     c34:	d8800043 	ldbu	r2,1(sp)
     c38:	00c03004 	movi	r3,192
			{
				alt_putstr( "MESSED UP!!!!!\n" ) ;
     c3c:	01000034 	movhi	r4,0
     c40:	210c7804 	addi	r4,r4,12768
		{
			data &= ~(0x3f) ;
			data |= i ;
			lms_spi_write( base+9, data ) ;
			lms_spi_read( base+10, &vtune ) ;
			if( (vtune&0xc0) == 0xc0 )
     c44:	1080300c 	andi	r2,r2,192
     c48:	10c0011e 	bne	r2,r3,c50 <lms_set_frequency+0x314>
			{
				alt_putstr( "MESSED UP!!!!!\n" ) ;
     c4c:	0002e380 	call	2e38 <alt_putstr>
			}
			if( vtune&0x80 )
     c50:	d8800047 	ldb	r2,1(sp)
			{
				alt_putstr( "Setting HIGH\n" ) ;
     c54:	01000034 	movhi	r4,0
     c58:	210c7c04 	addi	r4,r4,12784
			lms_spi_read( base+10, &vtune ) ;
			if( (vtune&0xc0) == 0xc0 )
			{
				alt_putstr( "MESSED UP!!!!!\n" ) ;
			}
			if( vtune&0x80 )
     c5c:	1000020e 	bge	r2,zero,c68 <lms_set_frequency+0x32c>
			{
				alt_putstr( "Setting HIGH\n" ) ;
     c60:	0002e380 	call	2e38 <alt_putstr>
     c64:	8027883a 	mov	r19,r16
				high = i ;
			}
			if( (vtune&0x40) && low == 64 )
     c68:	d8800043 	ldbu	r2,1(sp)
     c6c:	1080100c 	andi	r2,r2,64
     c70:	1000031e 	bne	r2,zero,c80 <lms_set_frequency+0x344>
     c74:	84000044 	addi	r16,r16,1
	// Loop through the VCOCAP to figure out optimal values
	lms_spi_read( base+9, &data ) ;
	data &= ~(0x3f) ;
	{
		uint8_t i, vtune, low = 64, high = 0;
		for( i = 0 ; i < 64 ; i++ )
     c78:	00801004 	movi	r2,64
     c7c:	80bfe11e 	bne	r16,r2,c04 <lms_set_frequency+0x2c8>
			{
				low = i ;
				break ;
			}
		}
		alt_printf( "LOW: %x HIGH: %x VCOCAP: %x\n", low, high, (low+high)>>1 ) ;
     c80:	99803fcc 	andi	r6,r19,255
     c84:	81403fcc 	andi	r5,r16,255
     c88:	29a1883a 	add	r16,r5,r6
     c8c:	8021d07a 	srai	r16,r16,1
     c90:	01000034 	movhi	r4,0
     c94:	210c8004 	addi	r4,r4,12800
     c98:	800f883a 	mov	r7,r16
     c9c:	0002ca40 	call	2ca4 <alt_printf>
		data &= ~(0x3f) ;
		data |= ((low+high)>>1) ;
     ca0:	d8800003 	ldbu	r2,0(sp)
     ca4:	00fff004 	movi	r3,-64
		lms_spi_write( base+9, data ) ;
     ca8:	8809883a 	mov	r4,r17
				break ;
			}
		}
		alt_printf( "LOW: %x HIGH: %x VCOCAP: %x\n", low, high, (low+high)>>1 ) ;
		data &= ~(0x3f) ;
		data |= ((low+high)>>1) ;
     cac:	10c4703a 	and	r2,r2,r3
     cb0:	1404b03a 	or	r2,r2,r16
		lms_spi_write( base+9, data ) ;
     cb4:	11403fcc 	andi	r5,r2,255
				break ;
			}
		}
		alt_printf( "LOW: %x HIGH: %x VCOCAP: %x\n", low, high, (low+high)>>1 ) ;
		data &= ~(0x3f) ;
		data |= ((low+high)>>1) ;
     cb8:	d8800005 	stb	r2,0(sp)
		lms_spi_write( base+9, data ) ;
     cbc:	000043c0 	call	43c <lms_spi_write>
		lms_spi_write( base+9, data ) ;
     cc0:	d9400003 	ldbu	r5,0(sp)
     cc4:	8809883a 	mov	r4,r17
     cc8:	000043c0 	call	43c <lms_spi_write>
		lms_spi_read( base+10, &vtune ) ;
     ccc:	91003fcc 	andi	r4,r18,255
     cd0:	d9400044 	addi	r5,sp,1
     cd4:	00008240 	call	824 <lms_spi_read>
		alt_printf( "VTUNE: %x\n", vtune&0xc0 ) ;
     cd8:	d9400043 	ldbu	r5,1(sp)
     cdc:	01000034 	movhi	r4,0
     ce0:	210c8804 	addi	r4,r4,12832
     ce4:	2940300c 	andi	r5,r5,192
     ce8:	0002ca40 	call	2ca4 <alt_printf>
	}

	// Turn off the DSMs
	lms_spi_read( 0x09, &data ) ;
     cec:	d80b883a 	mov	r5,sp
     cf0:	01000244 	movi	r4,9
     cf4:	00008240 	call	824 <lms_spi_read>
	data &= ~(0x05) ;
     cf8:	d8800003 	ldbu	r2,0(sp)
     cfc:	00fffe84 	movi	r3,-6
	lms_spi_write( 0x09, data ) ;
     d00:	01000244 	movi	r4,9
		alt_printf( "VTUNE: %x\n", vtune&0xc0 ) ;
	}

	// Turn off the DSMs
	lms_spi_read( 0x09, &data ) ;
	data &= ~(0x05) ;
     d04:	10c4703a 	and	r2,r2,r3
	lms_spi_write( 0x09, data ) ;
     d08:	11403e8c 	andi	r5,r2,250
		alt_printf( "VTUNE: %x\n", vtune&0xc0 ) ;
	}

	// Turn off the DSMs
	lms_spi_read( 0x09, &data ) ;
	data &= ~(0x05) ;
     d0c:	d8800005 	stb	r2,0(sp)
	lms_spi_write( 0x09, data ) ;
     d10:	000043c0 	call	43c <lms_spi_write>

	return ;
}
     d14:	dfc00c17 	ldw	ra,48(sp)
     d18:	dd800b17 	ldw	r22,44(sp)
     d1c:	dd400a17 	ldw	r21,40(sp)
     d20:	dd000917 	ldw	r20,36(sp)
     d24:	dcc00817 	ldw	r19,32(sp)
     d28:	dc800717 	ldw	r18,28(sp)
     d2c:	dc400617 	ldw	r17,24(sp)
     d30:	dc000517 	ldw	r16,20(sp)
     d34:	dec00d04 	addi	sp,sp,52
     d38:	f800283a 	ret

00000d3c <lms_get_frequency>:
    //nfrac = floor(2^23 * (((x*f_lo)/f_ref) -nint))
    
}

// Get the frequency structure
void lms_get_frequency( lms_module_t mod, lms_freq_t *f ) {
     d3c:	defffc04 	addi	sp,sp,-16
     d40:	dc400215 	stw	r17,8(sp)
     d44:	dc000115 	stw	r16,4(sp)
     d48:	dfc00315 	stw	ra,12(sp)
	uint8_t base = (mod == RX) ? 0x20 : 0x10 ;
     d4c:	04400804 	movi	r17,32
    //nfrac = floor(2^23 * (((x*f_lo)/f_ref) -nint))
    
}

// Get the frequency structure
void lms_get_frequency( lms_module_t mod, lms_freq_t *f ) {
     d50:	2821883a 	mov	r16,r5
	uint8_t base = (mod == RX) ? 0x20 : 0x10 ;
     d54:	20000126 	beq	r4,zero,d5c <lms_get_frequency+0x20>
     d58:	04400404 	movi	r17,16
	uint8_t data ;
	lms_spi_read( base+0, &data ) ;
     d5c:	89003fcc 	andi	r4,r17,255
     d60:	d80b883a 	mov	r5,sp
     d64:	00008240 	call	824 <lms_spi_read>
	f->nint = ((uint16_t)data) << 1 ;
     d68:	d8800003 	ldbu	r2,0(sp)
	lms_spi_read( base+1, &data ) ;
     d6c:	89000044 	addi	r4,r17,1
     d70:	d80b883a 	mov	r5,sp
// Get the frequency structure
void lms_get_frequency( lms_module_t mod, lms_freq_t *f ) {
	uint8_t base = (mod == RX) ? 0x20 : 0x10 ;
	uint8_t data ;
	lms_spi_read( base+0, &data ) ;
	f->nint = ((uint16_t)data) << 1 ;
     d74:	1085883a 	add	r2,r2,r2
     d78:	8080000d 	sth	r2,0(r16)
	lms_spi_read( base+1, &data ) ;
     d7c:	21003fcc 	andi	r4,r4,255
     d80:	00008240 	call	824 <lms_spi_read>
	f->nint |= (data&0x80)>>7 ;
     d84:	d8800003 	ldbu	r2,0(sp)
     d88:	8140000b 	ldhu	r5,0(r16)
	f->nfrac = ((uint32_t)data&0x7f)<<16 ;
	lms_spi_read( base+2, &data ) ;
     d8c:	89000084 	addi	r4,r17,2
	uint8_t data ;
	lms_spi_read( base+0, &data ) ;
	f->nint = ((uint16_t)data) << 1 ;
	lms_spi_read( base+1, &data ) ;
	f->nint |= (data&0x80)>>7 ;
	f->nfrac = ((uint32_t)data&0x7f)<<16 ;
     d90:	10c01fcc 	andi	r3,r2,127
	uint8_t base = (mod == RX) ? 0x20 : 0x10 ;
	uint8_t data ;
	lms_spi_read( base+0, &data ) ;
	f->nint = ((uint16_t)data) << 1 ;
	lms_spi_read( base+1, &data ) ;
	f->nint |= (data&0x80)>>7 ;
     d94:	1004d1fa 	srli	r2,r2,7
	f->nfrac = ((uint32_t)data&0x7f)<<16 ;
     d98:	1806943a 	slli	r3,r3,16
	lms_spi_read( base+2, &data ) ;
     d9c:	21003fcc 	andi	r4,r4,255
	uint8_t base = (mod == RX) ? 0x20 : 0x10 ;
	uint8_t data ;
	lms_spi_read( base+0, &data ) ;
	f->nint = ((uint16_t)data) << 1 ;
	lms_spi_read( base+1, &data ) ;
	f->nint |= (data&0x80)>>7 ;
     da0:	1144b03a 	or	r2,r2,r5
     da4:	8080000d 	sth	r2,0(r16)
	f->nfrac = ((uint32_t)data&0x7f)<<16 ;
     da8:	80c00115 	stw	r3,4(r16)
	lms_spi_read( base+2, &data ) ;
     dac:	d80b883a 	mov	r5,sp
     db0:	00008240 	call	824 <lms_spi_read>
	f->nfrac |= ((uint32_t)data)<<8 ;
     db4:	d8800003 	ldbu	r2,0(sp)
     db8:	80c00117 	ldw	r3,4(r16)
	lms_spi_read( base+3, &data) ;
     dbc:	890000c4 	addi	r4,r17,3
	f->nint = ((uint16_t)data) << 1 ;
	lms_spi_read( base+1, &data ) ;
	f->nint |= (data&0x80)>>7 ;
	f->nfrac = ((uint32_t)data&0x7f)<<16 ;
	lms_spi_read( base+2, &data ) ;
	f->nfrac |= ((uint32_t)data)<<8 ;
     dc0:	1004923a 	slli	r2,r2,8
	lms_spi_read( base+3, &data) ;
     dc4:	d80b883a 	mov	r5,sp
     dc8:	21003fcc 	andi	r4,r4,255
	f->nint = ((uint16_t)data) << 1 ;
	lms_spi_read( base+1, &data ) ;
	f->nint |= (data&0x80)>>7 ;
	f->nfrac = ((uint32_t)data&0x7f)<<16 ;
	lms_spi_read( base+2, &data ) ;
	f->nfrac |= ((uint32_t)data)<<8 ;
     dcc:	1886b03a 	or	r3,r3,r2
     dd0:	80c00115 	stw	r3,4(r16)
	lms_spi_read( base+3, &data) ;
     dd4:	00008240 	call	824 <lms_spi_read>
	f->nfrac |= data ;
     dd8:	d8c00003 	ldbu	r3,0(sp)
     ddc:	80800117 	ldw	r2,4(r16)
	lms_spi_read( base+5, &data ) ;
     de0:	89000144 	addi	r4,r17,5
     de4:	21003fcc 	andi	r4,r4,255
	f->nint |= (data&0x80)>>7 ;
	f->nfrac = ((uint32_t)data&0x7f)<<16 ;
	lms_spi_read( base+2, &data ) ;
	f->nfrac |= ((uint32_t)data)<<8 ;
	lms_spi_read( base+3, &data) ;
	f->nfrac |= data ;
     de8:	10c4b03a 	or	r2,r2,r3
     dec:	80800115 	stw	r2,4(r16)
	lms_spi_read( base+5, &data ) ;
     df0:	d80b883a 	mov	r5,sp
     df4:	00008240 	call	824 <lms_spi_read>
	f->freqsel = (data>>2) ;
     df8:	d8800003 	ldbu	r2,0(sp)
	f->reference = 38400000 ;
     dfc:	00c092b4 	movhi	r3,586
     e00:	18fc0004 	addi	r3,r3,-4096
     e04:	80c00315 	stw	r3,12(r16)
	lms_spi_read( base+2, &data ) ;
	f->nfrac |= ((uint32_t)data)<<8 ;
	lms_spi_read( base+3, &data) ;
	f->nfrac |= data ;
	lms_spi_read( base+5, &data ) ;
	f->freqsel = (data>>2) ;
     e08:	1004d0ba 	srli	r2,r2,2
     e0c:	80800205 	stb	r2,8(r16)
	f->reference = 38400000 ;
	return ;
}
     e10:	dfc00317 	ldw	ra,12(sp)
     e14:	dc400217 	ldw	r17,8(sp)
     e18:	dc000117 	ldw	r16,4(sp)
     e1c:	dec00404 	addi	sp,sp,16
     e20:	f800283a 	ret

00000e24 <lms_tx_disable>:
	return ;
}

// Disable the TX subsystem
void lms_tx_disable( )
{
     e24:	defffd04 	addi	sp,sp,-12
     e28:	dc000115 	stw	r16,4(sp)
	uint8_t data ;
	lms_spi_read( 0x05, &data ) ;
     e2c:	04000144 	movi	r16,5
     e30:	8009883a 	mov	r4,r16
     e34:	d80b883a 	mov	r5,sp
	return ;
}

// Disable the TX subsystem
void lms_tx_disable( )
{
     e38:	dfc00215 	stw	ra,8(sp)
	uint8_t data ;
	lms_spi_read( 0x05, &data ) ;
     e3c:	00008240 	call	824 <lms_spi_read>
	data &= ~(1<<3) ;
     e40:	d8800003 	ldbu	r2,0(sp)
     e44:	00fffdc4 	movi	r3,-9
	lms_spi_write( 0x05, data ) ;
     e48:	8009883a 	mov	r4,r16
// Disable the TX subsystem
void lms_tx_disable( )
{
	uint8_t data ;
	lms_spi_read( 0x05, &data ) ;
	data &= ~(1<<3) ;
     e4c:	10c4703a 	and	r2,r2,r3
	lms_spi_write( 0x05, data ) ;
     e50:	11403dcc 	andi	r5,r2,247
// Disable the TX subsystem
void lms_tx_disable( )
{
	uint8_t data ;
	lms_spi_read( 0x05, &data ) ;
	data &= ~(1<<3) ;
     e54:	d8800005 	stb	r2,0(sp)
	lms_spi_write( 0x05, data ) ;
     e58:	000043c0 	call	43c <lms_spi_write>
	return ;
}
     e5c:	dfc00217 	ldw	ra,8(sp)
     e60:	dc000117 	ldw	r16,4(sp)
     e64:	dec00304 	addi	sp,sp,12
     e68:	f800283a 	ret

00000e6c <lms_tx_enable>:
	return ;
}

// Enable the TX subsystem
void lms_tx_enable( )
{
     e6c:	defffd04 	addi	sp,sp,-12
     e70:	dc000115 	stw	r16,4(sp)
	uint8_t data ;
	lms_spi_read( 0x05, &data ) ;
     e74:	04000144 	movi	r16,5
     e78:	8009883a 	mov	r4,r16
     e7c:	d80b883a 	mov	r5,sp
	return ;
}

// Enable the TX subsystem
void lms_tx_enable( )
{
     e80:	dfc00215 	stw	ra,8(sp)
	uint8_t data ;
	lms_spi_read( 0x05, &data ) ;
     e84:	00008240 	call	824 <lms_spi_read>
	data |= (1<<3) ;
     e88:	d8800003 	ldbu	r2,0(sp)
	lms_spi_write( 0x05, data ) ;
     e8c:	8009883a 	mov	r4,r16
// Enable the TX subsystem
void lms_tx_enable( )
{
	uint8_t data ;
	lms_spi_read( 0x05, &data ) ;
	data |= (1<<3) ;
     e90:	10800214 	ori	r2,r2,8
	lms_spi_write( 0x05, data ) ;
     e94:	11403fcc 	andi	r5,r2,255
// Enable the TX subsystem
void lms_tx_enable( )
{
	uint8_t data ;
	lms_spi_read( 0x05, &data ) ;
	data |= (1<<3) ;
     e98:	d8800005 	stb	r2,0(sp)
	lms_spi_write( 0x05, data ) ;
     e9c:	000043c0 	call	43c <lms_spi_write>
	return ;
}
     ea0:	dfc00217 	ldw	ra,8(sp)
     ea4:	dc000117 	ldw	r16,4(sp)
     ea8:	dec00304 	addi	sp,sp,12
     eac:	f800283a 	ret

00000eb0 <lms_rx_disable>:
	return ;
}

// Disable the RX subsystem
void lms_rx_disable( )
{
     eb0:	defffd04 	addi	sp,sp,-12
     eb4:	dc000115 	stw	r16,4(sp)
	uint8_t data ;
	lms_spi_read( 0x05, &data ) ;
     eb8:	04000144 	movi	r16,5
     ebc:	8009883a 	mov	r4,r16
     ec0:	d80b883a 	mov	r5,sp
	return ;
}

// Disable the RX subsystem
void lms_rx_disable( )
{
     ec4:	dfc00215 	stw	ra,8(sp)
	uint8_t data ;
	lms_spi_read( 0x05, &data ) ;
     ec8:	00008240 	call	824 <lms_spi_read>
	data &= ~(1<<2) ;
     ecc:	d8800003 	ldbu	r2,0(sp)
     ed0:	00fffec4 	movi	r3,-5
	lms_spi_write( 0x05, data ) ;
     ed4:	8009883a 	mov	r4,r16
// Disable the RX subsystem
void lms_rx_disable( )
{
	uint8_t data ;
	lms_spi_read( 0x05, &data ) ;
	data &= ~(1<<2) ;
     ed8:	10c4703a 	and	r2,r2,r3
	lms_spi_write( 0x05, data ) ;
     edc:	11403ecc 	andi	r5,r2,251
// Disable the RX subsystem
void lms_rx_disable( )
{
	uint8_t data ;
	lms_spi_read( 0x05, &data ) ;
	data &= ~(1<<2) ;
     ee0:	d8800005 	stb	r2,0(sp)
	lms_spi_write( 0x05, data ) ;
     ee4:	000043c0 	call	43c <lms_spi_write>
	return ;
}
     ee8:	dfc00217 	ldw	ra,8(sp)
     eec:	dc000117 	ldw	r16,4(sp)
     ef0:	dec00304 	addi	sp,sp,12
     ef4:	f800283a 	ret

00000ef8 <lms_rx_enable>:
	return ;
}

// Enable the RX subsystem
void lms_rx_enable( )
{
     ef8:	defffd04 	addi	sp,sp,-12
     efc:	dc000115 	stw	r16,4(sp)
	uint8_t data ;
	lms_spi_read( 0x05, &data ) ;
     f00:	04000144 	movi	r16,5
     f04:	8009883a 	mov	r4,r16
     f08:	d80b883a 	mov	r5,sp
	return ;
}

// Enable the RX subsystem
void lms_rx_enable( )
{
     f0c:	dfc00215 	stw	ra,8(sp)
	uint8_t data ;
	lms_spi_read( 0x05, &data ) ;
     f10:	00008240 	call	824 <lms_spi_read>
	data |= (1<<2) ;
     f14:	d8800003 	ldbu	r2,0(sp)
	lms_spi_write( 0x05, data ) ;
     f18:	8009883a 	mov	r4,r16
// Enable the RX subsystem
void lms_rx_enable( )
{
	uint8_t data ;
	lms_spi_read( 0x05, &data ) ;
	data |= (1<<2) ;
     f1c:	10800114 	ori	r2,r2,4
	lms_spi_write( 0x05, data ) ;
     f20:	11403fcc 	andi	r5,r2,255
// Enable the RX subsystem
void lms_rx_enable( )
{
	uint8_t data ;
	lms_spi_read( 0x05, &data ) ;
	data |= (1<<2) ;
     f24:	d8800005 	stb	r2,0(sp)
	lms_spi_write( 0x05, data ) ;
     f28:	000043c0 	call	43c <lms_spi_write>
	return ;
}
     f2c:	dfc00217 	ldw	ra,8(sp)
     f30:	dc000117 	ldw	r16,4(sp)
     f34:	dec00304 	addi	sp,sp,12
     f38:	f800283a 	ret

00000f3c <lms_pll_disable>:
	return ;
}

// Disable the PLL of a module
void lms_pll_disable( lms_module_t mod )
{
     f3c:	defffd04 	addi	sp,sp,-12
     f40:	dc000115 	stw	r16,4(sp)
     f44:	dfc00215 	stw	ra,8(sp)
	uint8_t reg = (mod == RX) ? 0x24 : 0x14 ;
     f48:	04000904 	movi	r16,36
     f4c:	20000126 	beq	r4,zero,f54 <lms_pll_disable+0x18>
     f50:	04000504 	movi	r16,20
	uint8_t data ;
	lms_spi_read( reg, &data ) ;
     f54:	84003fcc 	andi	r16,r16,255
     f58:	d80b883a 	mov	r5,sp
     f5c:	8009883a 	mov	r4,r16
     f60:	00008240 	call	824 <lms_spi_read>
	data &= ~(1<<3) ;
     f64:	d8800003 	ldbu	r2,0(sp)
     f68:	00fffdc4 	movi	r3,-9
	lms_spi_write( reg, data ) ;
     f6c:	8009883a 	mov	r4,r16
void lms_pll_disable( lms_module_t mod )
{
	uint8_t reg = (mod == RX) ? 0x24 : 0x14 ;
	uint8_t data ;
	lms_spi_read( reg, &data ) ;
	data &= ~(1<<3) ;
     f70:	10c4703a 	and	r2,r2,r3
	lms_spi_write( reg, data ) ;
     f74:	11403dcc 	andi	r5,r2,247
void lms_pll_disable( lms_module_t mod )
{
	uint8_t reg = (mod == RX) ? 0x24 : 0x14 ;
	uint8_t data ;
	lms_spi_read( reg, &data ) ;
	data &= ~(1<<3) ;
     f78:	d8800005 	stb	r2,0(sp)
	lms_spi_write( reg, data ) ;
     f7c:	000043c0 	call	43c <lms_spi_write>
	return ;
}
     f80:	dfc00217 	ldw	ra,8(sp)
     f84:	dc000117 	ldw	r16,4(sp)
     f88:	dec00304 	addi	sp,sp,12
     f8c:	f800283a 	ret

00000f90 <lms_pll_enable>:
	return ;
}

// Enable the PLL of a module
void lms_pll_enable( lms_module_t mod )
{
     f90:	defffd04 	addi	sp,sp,-12
     f94:	dc000115 	stw	r16,4(sp)
     f98:	dfc00215 	stw	ra,8(sp)
	uint8_t reg = (mod == RX) ? 0x24 : 0x14 ;
     f9c:	04000904 	movi	r16,36
     fa0:	20000126 	beq	r4,zero,fa8 <lms_pll_enable+0x18>
     fa4:	04000504 	movi	r16,20
	uint8_t data ;
	lms_spi_read( reg, &data ) ;
     fa8:	84003fcc 	andi	r16,r16,255
     fac:	d80b883a 	mov	r5,sp
     fb0:	8009883a 	mov	r4,r16
     fb4:	00008240 	call	824 <lms_spi_read>
	data |= (1<<3) ;
     fb8:	d8800003 	ldbu	r2,0(sp)
	lms_spi_write( reg, data ) ;
     fbc:	8009883a 	mov	r4,r16
void lms_pll_enable( lms_module_t mod )
{
	uint8_t reg = (mod == RX) ? 0x24 : 0x14 ;
	uint8_t data ;
	lms_spi_read( reg, &data ) ;
	data |= (1<<3) ;
     fc0:	10800214 	ori	r2,r2,8
	lms_spi_write( reg, data ) ;
     fc4:	11403fcc 	andi	r5,r2,255
void lms_pll_enable( lms_module_t mod )
{
	uint8_t reg = (mod == RX) ? 0x24 : 0x14 ;
	uint8_t data ;
	lms_spi_read( reg, &data ) ;
	data |= (1<<3) ;
     fc8:	d8800005 	stb	r2,0(sp)
	lms_spi_write( reg, data ) ;
     fcc:	000043c0 	call	43c <lms_spi_write>
	return ;
}
     fd0:	dfc00217 	ldw	ra,8(sp)
     fd4:	dc000117 	ldw	r16,4(sp)
     fd8:	dec00304 	addi	sp,sp,12
     fdc:	f800283a 	ret

00000fe0 <lms_power_down>:
	return ;
}

// Top level power down of the LMS
void lms_power_down( )
{
     fe0:	defffd04 	addi	sp,sp,-12
     fe4:	dc000115 	stw	r16,4(sp)
	uint8_t data ;
	lms_spi_read( 0x05, &data ) ;
     fe8:	04000144 	movi	r16,5
     fec:	8009883a 	mov	r4,r16
     ff0:	d80b883a 	mov	r5,sp
	return ;
}

// Top level power down of the LMS
void lms_power_down( )
{
     ff4:	dfc00215 	stw	ra,8(sp)
	uint8_t data ;
	lms_spi_read( 0x05, &data ) ;
     ff8:	00008240 	call	824 <lms_spi_read>
	data &= ~(1<<4) ;
     ffc:	d8800003 	ldbu	r2,0(sp)
    1000:	00fffbc4 	movi	r3,-17
	lms_spi_write( 0x05, data ) ;
    1004:	8009883a 	mov	r4,r16
// Top level power down of the LMS
void lms_power_down( )
{
	uint8_t data ;
	lms_spi_read( 0x05, &data ) ;
	data &= ~(1<<4) ;
    1008:	10c4703a 	and	r2,r2,r3
	lms_spi_write( 0x05, data ) ;
    100c:	11403bcc 	andi	r5,r2,239
// Top level power down of the LMS
void lms_power_down( )
{
	uint8_t data ;
	lms_spi_read( 0x05, &data ) ;
	data &= ~(1<<4) ;
    1010:	d8800005 	stb	r2,0(sp)
	lms_spi_write( 0x05, data ) ;
    1014:	000043c0 	call	43c <lms_spi_write>
	return ;
}
    1018:	dfc00217 	ldw	ra,8(sp)
    101c:	dc000117 	ldw	r16,4(sp)
    1020:	dec00304 	addi	sp,sp,12
    1024:	f800283a 	ret

00001028 <lms_get_loopback_mode>:
	return ;
}

// Figure out what loopback mode we're in (if any at all!)
lms_loopback_mode_t lms_get_loopback_mode( )
{
    1028:	defffe04 	addi	sp,sp,-8
	uint8_t data ;
	lms_loopback_mode_t mode = LB_NONE ;
	lms_spi_read( 0x08, &data ) ;
    102c:	01000204 	movi	r4,8
    1030:	d80b883a 	mov	r5,sp
	return ;
}

// Figure out what loopback mode we're in (if any at all!)
lms_loopback_mode_t lms_get_loopback_mode( )
{
    1034:	dfc00115 	stw	ra,4(sp)
	uint8_t data ;
	lms_loopback_mode_t mode = LB_NONE ;
	lms_spi_read( 0x08, &data ) ;
    1038:	00008240 	call	824 <lms_spi_read>
	if( data == 0 )
    103c:	d8c00003 	ldbu	r3,0(sp)
    1040:	18001926 	beq	r3,zero,10a8 <lms_get_loopback_mode+0x80>
	{
		mode = LB_NONE ;
	} else if( data&(1<<6) )
    1044:	1880100c 	andi	r2,r3,64
    1048:	10000226 	beq	r2,zero,1054 <lms_get_loopback_mode+0x2c>
    104c:	0005883a 	mov	r2,zero
    1050:	00001606 	br	10ac <lms_get_loopback_mode+0x84>
	{
		mode = LB_BB_LPF ;
	} else if( data&(1<<5) )
    1054:	1880080c 	andi	r2,r3,32
    1058:	10000226 	beq	r2,zero,1064 <lms_get_loopback_mode+0x3c>
    105c:	00800044 	movi	r2,1
    1060:	00001206 	br	10ac <lms_get_loopback_mode+0x84>
	{
		mode = LB_BB_VGA2 ;
	} else if( data&(1<<4) )
    1064:	1880040c 	andi	r2,r3,16
    1068:	10000226 	beq	r2,zero,1074 <lms_get_loopback_mode+0x4c>
    106c:	00800084 	movi	r2,2
    1070:	00000e06 	br	10ac <lms_get_loopback_mode+0x84>
	{
		mode = LB_BB_OP ;
	} else if( (data&0xf) == 1 )
    1074:	18c003cc 	andi	r3,r3,15
    1078:	00800044 	movi	r2,1
    107c:	1880021e 	bne	r3,r2,1088 <lms_get_loopback_mode+0x60>
    1080:	00800104 	movi	r2,4
    1084:	00000906 	br	10ac <lms_get_loopback_mode+0x84>
	{
		mode = LB_RF_LNA1 ;
	} else if( (data&0xf) == 2 )
    1088:	00800084 	movi	r2,2
    108c:	1880021e 	bne	r3,r2,1098 <lms_get_loopback_mode+0x70>
    1090:	00800144 	movi	r2,5
    1094:	00000506 	br	10ac <lms_get_loopback_mode+0x84>
	{
		mode = LB_RF_LNA2 ;
	} else if( (data&0xf) == 3 )
    1098:	008000c4 	movi	r2,3
    109c:	1880021e 	bne	r3,r2,10a8 <lms_get_loopback_mode+0x80>
    10a0:	00800184 	movi	r2,6
    10a4:	00000106 	br	10ac <lms_get_loopback_mode+0x84>
    10a8:	008001c4 	movi	r2,7
	{
		mode = LB_RF_LNA3 ;
	}
	return mode ;
}
    10ac:	dfc00117 	ldw	ra,4(sp)
    10b0:	dec00204 	addi	sp,sp,8
    10b4:	f800283a 	ret

000010b8 <lms_peakdetect_disable>:
	lms_spi_write( 0x44, data ) ;
	return ;
}

void lms_peakdetect_disable( )
{
    10b8:	defffd04 	addi	sp,sp,-12
    10bc:	dc000115 	stw	r16,4(sp)
	uint8_t data ;
	lms_spi_read( 0x44, &data ) ;
    10c0:	04001104 	movi	r16,68
    10c4:	8009883a 	mov	r4,r16
    10c8:	d80b883a 	mov	r5,sp
	lms_spi_write( 0x44, data ) ;
	return ;
}

void lms_peakdetect_disable( )
{
    10cc:	dfc00215 	stw	ra,8(sp)
	uint8_t data ;
	lms_spi_read( 0x44, &data ) ;
    10d0:	00008240 	call	824 <lms_spi_read>
	data |= (1<<0) ;
    10d4:	d8800003 	ldbu	r2,0(sp)
	lms_spi_write( 0x44, data ) ;
    10d8:	8009883a 	mov	r4,r16

void lms_peakdetect_disable( )
{
	uint8_t data ;
	lms_spi_read( 0x44, &data ) ;
	data |= (1<<0) ;
    10dc:	10800054 	ori	r2,r2,1
	lms_spi_write( 0x44, data ) ;
    10e0:	11403fcc 	andi	r5,r2,255

void lms_peakdetect_disable( )
{
	uint8_t data ;
	lms_spi_read( 0x44, &data ) ;
	data |= (1<<0) ;
    10e4:	d8800005 	stb	r2,0(sp)
	lms_spi_write( 0x44, data ) ;
    10e8:	000043c0 	call	43c <lms_spi_write>
	return ;
}
    10ec:	dfc00217 	ldw	ra,8(sp)
    10f0:	dc000117 	ldw	r16,4(sp)
    10f4:	dec00304 	addi	sp,sp,12
    10f8:	f800283a 	ret

000010fc <lms_peakdetect_enable>:
	lms_spi_write( 0x44, data ) ;
	return ;
}

void lms_peakdetect_enable( )
{
    10fc:	defffd04 	addi	sp,sp,-12
    1100:	dc000115 	stw	r16,4(sp)
	uint8_t data ;
	lms_spi_read( 0x44, &data ) ;
    1104:	04001104 	movi	r16,68
    1108:	8009883a 	mov	r4,r16
    110c:	d80b883a 	mov	r5,sp
	lms_spi_write( 0x44, data ) ;
	return ;
}

void lms_peakdetect_enable( )
{
    1110:	dfc00215 	stw	ra,8(sp)
	uint8_t data ;
	lms_spi_read( 0x44, &data ) ;
    1114:	00008240 	call	824 <lms_spi_read>
	data &= ~(1<<0) ;
    1118:	d8800003 	ldbu	r2,0(sp)
    111c:	00ffff84 	movi	r3,-2
	lms_spi_write( 0x44, data ) ;
    1120:	8009883a 	mov	r4,r16

void lms_peakdetect_enable( )
{
	uint8_t data ;
	lms_spi_read( 0x44, &data ) ;
	data &= ~(1<<0) ;
    1124:	10c4703a 	and	r2,r2,r3
	lms_spi_write( 0x44, data ) ;
    1128:	11403f8c 	andi	r5,r2,254

void lms_peakdetect_enable( )
{
	uint8_t data ;
	lms_spi_read( 0x44, &data ) ;
	data &= ~(1<<0) ;
    112c:	d8800005 	stb	r2,0(sp)
	lms_spi_write( 0x44, data ) ;
    1130:	000043c0 	call	43c <lms_spi_write>
	return ;
}
    1134:	dfc00217 	ldw	ra,8(sp)
    1138:	dc000117 	ldw	r16,4(sp)
    113c:	dec00304 	addi	sp,sp,12
    1140:	f800283a 	ret

00001144 <lms_pa_disable>:
	return ;
}

// Disable PA
void lms_pa_disable( lms_pa_t pa )
{
    1144:	defffd04 	addi	sp,sp,-12
    1148:	dc000115 	stw	r16,4(sp)
	uint8_t data ;
	lms_spi_read( 0x44, &data ) ;
    114c:	d80b883a 	mov	r5,sp
	return ;
}

// Disable PA
void lms_pa_disable( lms_pa_t pa )
{
    1150:	2021883a 	mov	r16,r4
	uint8_t data ;
	lms_spi_read( 0x44, &data ) ;
    1154:	01001104 	movi	r4,68
	return ;
}

// Disable PA
void lms_pa_disable( lms_pa_t pa )
{
    1158:	dfc00215 	stw	ra,8(sp)
	uint8_t data ;
	lms_spi_read( 0x44, &data ) ;
    115c:	00008240 	call	824 <lms_spi_read>
	if( pa == PA_ALL )
    1160:	008000c4 	movi	r2,3
    1164:	8080041e 	bne	r16,r2,1178 <lms_pa_disable+0x34>
	{
		data |= (1<<1) ;
		data &= ~(4<<2) ;
		data &= ~(2<<2) ;
    1168:	d8800003 	ldbu	r2,0(sp)
    116c:	10800094 	ori	r2,r2,2
    1170:	108039cc 	andi	r2,r2,231
    1174:	00000a06 	br	11a0 <lms_pa_disable+0x5c>
	} else if( pa == PA_AUX )
    1178:	8000031e 	bne	r16,zero,1188 <lms_pa_disable+0x44>
	{
		data |= (1<<1) ;
    117c:	d8800003 	ldbu	r2,0(sp)
    1180:	10800094 	ori	r2,r2,2
    1184:	00000606 	br	11a0 <lms_pa_disable+0x5c>
	} else if( pa == PA_1 )
    1188:	00800044 	movi	r2,1
    118c:	d8c00003 	ldbu	r3,0(sp)
    1190:	8080021e 	bne	r16,r2,119c <lms_pa_disable+0x58>
	{
		data &= ~(4<<2) ;
    1194:	18803bcc 	andi	r2,r3,239
    1198:	00000106 	br	11a0 <lms_pa_disable+0x5c>
	} else { // pa == PA_2
		data &= ~(2<<2) ;
    119c:	18803dcc 	andi	r2,r3,247
    11a0:	d8800005 	stb	r2,0(sp)
	}
	lms_spi_write( 0x44, data ) ;
    11a4:	d9400003 	ldbu	r5,0(sp)
    11a8:	01001104 	movi	r4,68
    11ac:	000043c0 	call	43c <lms_spi_write>
	return ;
}
    11b0:	dfc00217 	ldw	ra,8(sp)
    11b4:	dc000117 	ldw	r16,4(sp)
    11b8:	dec00304 	addi	sp,sp,12
    11bc:	f800283a 	ret

000011c0 <lms_tx_loopback_disable>:
	return ;
}

// Disable TX loopback
void lms_tx_loopback_disable( lms_txlb_t mode )
{
    11c0:	defffe04 	addi	sp,sp,-8
    11c4:	2007883a 	mov	r3,r4
    11c8:	dfc00115 	stw	ra,4(sp)
	uint8_t data ;
	switch(mode)
	{
		case TXLB_BB:
			lms_spi_read( 0x46, &data ) ;
    11cc:	d80b883a 	mov	r5,sp
    11d0:	01001184 	movi	r4,70

// Disable TX loopback
void lms_tx_loopback_disable( lms_txlb_t mode )
{
	uint8_t data ;
	switch(mode)
    11d4:	18000326 	beq	r3,zero,11e4 <lms_tx_loopback_disable+0x24>
    11d8:	00800044 	movi	r2,1
    11dc:	1880181e 	bne	r3,r2,1240 <lms_tx_loopback_disable+0x80>
    11e0:	00000806 	br	1204 <lms_tx_loopback_disable+0x44>
	{
		case TXLB_BB:
			lms_spi_read( 0x46, &data ) ;
    11e4:	00008240 	call	824 <lms_spi_read>
			data &= ~(3<<2) ;
    11e8:	d8800003 	ldbu	r2,0(sp)
    11ec:	00fffcc4 	movi	r3,-13
			lms_spi_write( 0x46, data ) ;
    11f0:	01001184 	movi	r4,70
	uint8_t data ;
	switch(mode)
	{
		case TXLB_BB:
			lms_spi_read( 0x46, &data ) ;
			data &= ~(3<<2) ;
    11f4:	10c4703a 	and	r2,r2,r3
			lms_spi_write( 0x46, data ) ;
    11f8:	11403ccc 	andi	r5,r2,243
	uint8_t data ;
	switch(mode)
	{
		case TXLB_BB:
			lms_spi_read( 0x46, &data ) ;
			data &= ~(3<<2) ;
    11fc:	d8800005 	stb	r2,0(sp)
    1200:	00000e06 	br	123c <lms_tx_loopback_disable+0x7c>
			lms_spi_write( 0x46, data ) ;
			break ;
		case TXLB_RF:
			// Disable the AUX PA
			lms_pa_disable( PA_AUX ) ;
    1204:	0009883a 	mov	r4,zero
    1208:	00011440 	call	1144 <lms_pa_disable>
			// Disconnect the switch
			lms_spi_read( 0x0b, &data ) ;
    120c:	d80b883a 	mov	r5,sp
    1210:	010002c4 	movi	r4,11
    1214:	00008240 	call	824 <lms_spi_read>
			data &= ~(1<<0) ;
    1218:	d8800003 	ldbu	r2,0(sp)
    121c:	00ffff84 	movi	r3,-2
			lms_spi_write( 0x0b, data ) ;
    1220:	010002c4 	movi	r4,11
		case TXLB_RF:
			// Disable the AUX PA
			lms_pa_disable( PA_AUX ) ;
			// Disconnect the switch
			lms_spi_read( 0x0b, &data ) ;
			data &= ~(1<<0) ;
    1224:	10c4703a 	and	r2,r2,r3
			lms_spi_write( 0x0b, data ) ;
    1228:	11403f8c 	andi	r5,r2,254
		case TXLB_RF:
			// Disable the AUX PA
			lms_pa_disable( PA_AUX ) ;
			// Disconnect the switch
			lms_spi_read( 0x0b, &data ) ;
			data &= ~(1<<0) ;
    122c:	d8800005 	stb	r2,0(sp)
			lms_spi_write( 0x0b, data ) ;
    1230:	000043c0 	call	43c <lms_spi_write>
            // Power up the LNA's
            lms_spi_write( 0x70, 0 ) ;
    1234:	01001c04 	movi	r4,112
    1238:	000b883a 	mov	r5,zero
    123c:	000043c0 	call	43c <lms_spi_write>
			break ;
	}
	return ;
}
    1240:	dfc00117 	ldw	ra,4(sp)
    1244:	dec00204 	addi	sp,sp,8
    1248:	f800283a 	ret

0000124c <lms_pa_enable>:
	return ;
}

// Enable PA (PA_ALL is NOT valid for enabling)
void lms_pa_enable( lms_pa_t pa )
{
    124c:	defffd04 	addi	sp,sp,-12
    1250:	dc000115 	stw	r16,4(sp)
	uint8_t data ;
	lms_spi_read( 0x44, &data ) ;
    1254:	d80b883a 	mov	r5,sp
	return ;
}

// Enable PA (PA_ALL is NOT valid for enabling)
void lms_pa_enable( lms_pa_t pa )
{
    1258:	2021883a 	mov	r16,r4
	uint8_t data ;
	lms_spi_read( 0x44, &data ) ;
    125c:	01001104 	movi	r4,68
	return ;
}

// Enable PA (PA_ALL is NOT valid for enabling)
void lms_pa_enable( lms_pa_t pa )
{
    1260:	dfc00215 	stw	ra,8(sp)
	uint8_t data ;
	lms_spi_read( 0x44, &data ) ;
    1264:	00008240 	call	824 <lms_spi_read>
	if( pa == PA_AUX )
    1268:	8000031e 	bne	r16,zero,1278 <lms_pa_enable+0x2c>
	{
		data &= ~(1<<1) ;
    126c:	d8800003 	ldbu	r2,0(sp)
    1270:	10803f4c 	andi	r2,r2,253
    1274:	00000d06 	br	12ac <lms_pa_enable+0x60>
	} else if( pa == PA_1 )
    1278:	00800044 	movi	r2,1
    127c:	8080051e 	bne	r16,r2,1294 <lms_pa_enable+0x48>
	{
		data &= ~(3<<2) ;
		data |= (2<<1) ;
    1280:	d8800003 	ldbu	r2,0(sp)
    1284:	00fffcc4 	movi	r3,-13
    1288:	10c4703a 	and	r2,r2,r3
    128c:	10800114 	ori	r2,r2,4
    1290:	00000606 	br	12ac <lms_pa_enable+0x60>
	} else if( pa == PA_2 )
    1294:	00800084 	movi	r2,2
    1298:	8080051e 	bne	r16,r2,12b0 <lms_pa_enable+0x64>
	{
		data &= ~(3<<2) ;
		data |= (4<<1) ;
    129c:	d8800003 	ldbu	r2,0(sp)
    12a0:	00fffcc4 	movi	r3,-13
    12a4:	10c4703a 	and	r2,r2,r3
    12a8:	10800214 	ori	r2,r2,8
    12ac:	d8800005 	stb	r2,0(sp)
	}
	lms_spi_write( 0x44, data ) ;
    12b0:	d9400003 	ldbu	r5,0(sp)
    12b4:	01001104 	movi	r4,68
    12b8:	000043c0 	call	43c <lms_spi_write>
	return ;
}
    12bc:	dfc00217 	ldw	ra,8(sp)
    12c0:	dc000117 	ldw	r16,4(sp)
    12c4:	dec00304 	addi	sp,sp,12
    12c8:	f800283a 	ret

000012cc <lms_tx_loopback_enable>:
	return ;
}

// Enable TX loopback
void lms_tx_loopback_enable( lms_txlb_t mode )
{
    12cc:	defffd04 	addi	sp,sp,-12
    12d0:	dc000115 	stw	r16,4(sp)
    12d4:	2021883a 	mov	r16,r4
    12d8:	dfc00215 	stw	ra,8(sp)
	uint8_t data ;
	switch(mode)
	{
		case TXLB_BB:
			lms_spi_read( 0x46, &data ) ;
    12dc:	d80b883a 	mov	r5,sp
    12e0:	01001184 	movi	r4,70

// Enable TX loopback
void lms_tx_loopback_enable( lms_txlb_t mode )
{
	uint8_t data ;
	switch(mode)
    12e4:	80000326 	beq	r16,zero,12f4 <lms_tx_loopback_enable+0x28>
    12e8:	00800044 	movi	r2,1
    12ec:	80801f1e 	bne	r16,r2,136c <lms_tx_loopback_enable+0xa0>
    12f0:	00000606 	br	130c <lms_tx_loopback_enable+0x40>
	{
		case TXLB_BB:
			lms_spi_read( 0x46, &data ) ;
    12f4:	00008240 	call	824 <lms_spi_read>
			data |= (3<<2) ;
    12f8:	d8800003 	ldbu	r2,0(sp)
			lms_spi_write( 0x46, data ) ;
    12fc:	01001184 	movi	r4,70
	uint8_t data ;
	switch(mode)
	{
		case TXLB_BB:
			lms_spi_read( 0x46, &data ) ;
			data |= (3<<2) ;
    1300:	10800314 	ori	r2,r2,12
			lms_spi_write( 0x46, data ) ;
    1304:	11403fcc 	andi	r5,r2,255
    1308:	00001606 	br	1364 <lms_tx_loopback_enable+0x98>
			break ;
		case TXLB_RF:
			// Disable all the PA's first
			lms_pa_disable( PA_ALL ) ;
    130c:	010000c4 	movi	r4,3
    1310:	00011440 	call	1144 <lms_pa_disable>
			// Connect up the switch
			lms_spi_read( 0x0b, &data ) ;
    1314:	d80b883a 	mov	r5,sp
    1318:	010002c4 	movi	r4,11
    131c:	00008240 	call	824 <lms_spi_read>
			data |= (1<<0) ;
    1320:	d8800003 	ldbu	r2,0(sp)
			lms_spi_write( 0x0b, data ) ;
    1324:	010002c4 	movi	r4,11
		case TXLB_RF:
			// Disable all the PA's first
			lms_pa_disable( PA_ALL ) ;
			// Connect up the switch
			lms_spi_read( 0x0b, &data ) ;
			data |= (1<<0) ;
    1328:	8084b03a 	or	r2,r16,r2
			lms_spi_write( 0x0b, data ) ;
    132c:	11403fcc 	andi	r5,r2,255
		case TXLB_RF:
			// Disable all the PA's first
			lms_pa_disable( PA_ALL ) ;
			// Connect up the switch
			lms_spi_read( 0x0b, &data ) ;
			data |= (1<<0) ;
    1330:	d8800005 	stb	r2,0(sp)
			lms_spi_write( 0x0b, data ) ;
    1334:	000043c0 	call	43c <lms_spi_write>
			// Enable the AUX PA only
			lms_pa_enable( PA_AUX ) ;
    1338:	0009883a 	mov	r4,zero
    133c:	000124c0 	call	124c <lms_pa_enable>
			lms_peakdetect_enable( );
    1340:	00010fc0 	call	10fc <lms_peakdetect_enable>
			// Make sure we're muxed over to the AUX mux
			lms_spi_read( 0x45, &data ) ;
    1344:	01001144 	movi	r4,69
    1348:	d80b883a 	mov	r5,sp
    134c:	00008240 	call	824 <lms_spi_read>
			data &= ~(7<<0) ;
    1350:	d8800003 	ldbu	r2,0(sp)
    1354:	00fffe04 	movi	r3,-8
			lms_spi_write( 0x45, data ) ;
    1358:	01001144 	movi	r4,69
			// Enable the AUX PA only
			lms_pa_enable( PA_AUX ) ;
			lms_peakdetect_enable( );
			// Make sure we're muxed over to the AUX mux
			lms_spi_read( 0x45, &data ) ;
			data &= ~(7<<0) ;
    135c:	10c4703a 	and	r2,r2,r3
			lms_spi_write( 0x45, data ) ;
    1360:	11403e0c 	andi	r5,r2,248
			// Enable the AUX PA only
			lms_pa_enable( PA_AUX ) ;
			lms_peakdetect_enable( );
			// Make sure we're muxed over to the AUX mux
			lms_spi_read( 0x45, &data ) ;
			data &= ~(7<<0) ;
    1364:	d8800005 	stb	r2,0(sp)
			lms_spi_write( 0x45, data ) ;
    1368:	000043c0 	call	43c <lms_spi_write>
			break ;
	}
	return ;
}
    136c:	dfc00217 	ldw	ra,8(sp)
    1370:	dc000117 	ldw	r16,4(sp)
    1374:	dec00304 	addi	sp,sp,12
    1378:	f800283a 	ret

0000137c <lms_rxvga2_enable>:
	return ;
}

// Enable RXVGA2
void lms_rxvga2_enable( uint8_t gain )
{
    137c:	defffc04 	addi	sp,sp,-16
    1380:	dc000115 	stw	r16,4(sp)
	uint8_t data ;
	lms_spi_read( 0x64, &data ) ;
    1384:	04001904 	movi	r16,100
	return ;
}

// Enable RXVGA2
void lms_rxvga2_enable( uint8_t gain )
{
    1388:	dc400215 	stw	r17,8(sp)
	uint8_t data ;
	lms_spi_read( 0x64, &data ) ;
    138c:	d80b883a 	mov	r5,sp
	return ;
}

// Enable RXVGA2
void lms_rxvga2_enable( uint8_t gain )
{
    1390:	2023883a 	mov	r17,r4
	uint8_t data ;
	lms_spi_read( 0x64, &data ) ;
    1394:	8009883a 	mov	r4,r16
	return ;
}

// Enable RXVGA2
void lms_rxvga2_enable( uint8_t gain )
{
    1398:	dfc00315 	stw	ra,12(sp)
	uint8_t data ;
	lms_spi_read( 0x64, &data ) ;
    139c:	00008240 	call	824 <lms_spi_read>
	data |= (1<<1) ;
    13a0:	d8800003 	ldbu	r2,0(sp)
	lms_spi_write( 0x64, data ) ;
    13a4:	8009883a 	mov	r4,r16
// Enable RXVGA2
void lms_rxvga2_enable( uint8_t gain )
{
	uint8_t data ;
	lms_spi_read( 0x64, &data ) ;
	data |= (1<<1) ;
    13a8:	10800094 	ori	r2,r2,2
	lms_spi_write( 0x64, data ) ;
    13ac:	11403fcc 	andi	r5,r2,255
// Enable RXVGA2
void lms_rxvga2_enable( uint8_t gain )
{
	uint8_t data ;
	lms_spi_read( 0x64, &data ) ;
	data |= (1<<1) ;
    13b0:	d8800005 	stb	r2,0(sp)
	lms_spi_write( 0x64, data ) ;
    13b4:	000043c0 	call	43c <lms_spi_write>
	lms_rxvga2_set_gain( gain ) ;
    13b8:	89003fcc 	andi	r4,r17,255
    13bc:	00007840 	call	784 <lms_rxvga2_set_gain>
	return ;
}
    13c0:	dfc00317 	ldw	ra,12(sp)
    13c4:	dc400217 	ldw	r17,8(sp)
    13c8:	dc000117 	ldw	r16,4(sp)
    13cc:	dec00404 	addi	sp,sp,16
    13d0:	f800283a 	ret

000013d4 <lms_rxvga2_disable>:
	return ;
}

// Disable RXVGA2
void lms_rxvga2_disable()
{
    13d4:	defffd04 	addi	sp,sp,-12
    13d8:	dc000115 	stw	r16,4(sp)
	uint8_t data ;
	lms_spi_read( 0x64, &data ) ;
    13dc:	04001904 	movi	r16,100
    13e0:	8009883a 	mov	r4,r16
    13e4:	d80b883a 	mov	r5,sp
	return ;
}

// Disable RXVGA2
void lms_rxvga2_disable()
{
    13e8:	dfc00215 	stw	ra,8(sp)
	uint8_t data ;
	lms_spi_read( 0x64, &data ) ;
    13ec:	00008240 	call	824 <lms_spi_read>
	data &= ~(1<<1) ;
    13f0:	d8800003 	ldbu	r2,0(sp)
    13f4:	00ffff44 	movi	r3,-3
	lms_spi_write( 0x64, data ) ;
    13f8:	8009883a 	mov	r4,r16
// Disable RXVGA2
void lms_rxvga2_disable()
{
	uint8_t data ;
	lms_spi_read( 0x64, &data ) ;
	data &= ~(1<<1) ;
    13fc:	10c4703a 	and	r2,r2,r3
	lms_spi_write( 0x64, data ) ;
    1400:	11403f4c 	andi	r5,r2,253
// Disable RXVGA2
void lms_rxvga2_disable()
{
	uint8_t data ;
	lms_spi_read( 0x64, &data ) ;
	data &= ~(1<<1) ;
    1404:	d8800005 	stb	r2,0(sp)
	lms_spi_write( 0x64, data ) ;
    1408:	000043c0 	call	43c <lms_spi_write>
	return ;
}
    140c:	dfc00217 	ldw	ra,8(sp)
    1410:	dc000117 	ldw	r16,4(sp)
    1414:	dec00304 	addi	sp,sp,12
    1418:	f800283a 	ret

0000141c <lms_lna_select>:
	return ;
}

// Select which LNA to enable
void lms_lna_select( lms_lna_t lna )
{
    141c:	defffc04 	addi	sp,sp,-16
    1420:	dc400215 	stw	r17,8(sp)
	uint8_t data ;
	lms_spi_read( 0x75, &data ) ; 
    1424:	04401d44 	movi	r17,117
	return ;
}

// Select which LNA to enable
void lms_lna_select( lms_lna_t lna )
{
    1428:	dc000115 	stw	r16,4(sp)
	uint8_t data ;
	lms_spi_read( 0x75, &data ) ; 
    142c:	d80b883a 	mov	r5,sp
	return ;
}

// Select which LNA to enable
void lms_lna_select( lms_lna_t lna )
{
    1430:	2021883a 	mov	r16,r4
	uint8_t data ;
	lms_spi_read( 0x75, &data ) ; 
    1434:	8809883a 	mov	r4,r17
	return ;
}

// Select which LNA to enable
void lms_lna_select( lms_lna_t lna )
{
    1438:	dfc00315 	stw	ra,12(sp)
	uint8_t data ;
	lms_spi_read( 0x75, &data ) ; 
	data &= ~(3<<4) ;
	data |= ((lna&3)<<4) ;
    143c:	840000cc 	andi	r16,r16,3

// Select which LNA to enable
void lms_lna_select( lms_lna_t lna )
{
	uint8_t data ;
	lms_spi_read( 0x75, &data ) ; 
    1440:	00008240 	call	824 <lms_spi_read>
	data &= ~(3<<4) ;
	data |= ((lna&3)<<4) ;
    1444:	d8800003 	ldbu	r2,0(sp)
    1448:	8020913a 	slli	r16,r16,4
    144c:	00fff3c4 	movi	r3,-49
    1450:	10c4703a 	and	r2,r2,r3
    1454:	1404b03a 	or	r2,r2,r16
	lms_spi_write( 0x75, data ) ;
    1458:	8809883a 	mov	r4,r17
    145c:	11403fcc 	andi	r5,r2,255
void lms_lna_select( lms_lna_t lna )
{
	uint8_t data ;
	lms_spi_read( 0x75, &data ) ; 
	data &= ~(3<<4) ;
	data |= ((lna&3)<<4) ;
    1460:	d8800005 	stb	r2,0(sp)
	lms_spi_write( 0x75, data ) ;
    1464:	000043c0 	call	43c <lms_spi_write>
	return ;
}
    1468:	dfc00317 	ldw	ra,12(sp)
    146c:	dc400217 	ldw	r17,8(sp)
    1470:	dc000117 	ldw	r16,4(sp)
    1474:	dec00404 	addi	sp,sp,16
    1478:	f800283a 	ret

0000147c <lms_loopback_enable>:
	return ;
}

// Loopback enable
void lms_loopback_enable( lms_loopback_mode_t mode )
{
    147c:	defffd04 	addi	sp,sp,-12
	uint8_t data ;
	switch(mode)
    1480:	00800184 	movi	r2,6
	return ;
}

// Loopback enable
void lms_loopback_enable( lms_loopback_mode_t mode )
{
    1484:	dc000115 	stw	r16,4(sp)
    1488:	dfc00215 	stw	ra,8(sp)
    148c:	2021883a 	mov	r16,r4
	uint8_t data ;
	switch(mode)
    1490:	11003636 	bltu	r2,r4,156c <lms_loopback_enable+0xf0>
    1494:	2105883a 	add	r2,r4,r4
    1498:	1085883a 	add	r2,r2,r2
    149c:	00c00034 	movhi	r3,0
    14a0:	18c52c04 	addi	r3,r3,5296
    14a4:	10c5883a 	add	r2,r2,r3
    14a8:	10800017 	ldw	r2,0(r2)
    14ac:	1000683a 	jmp	r2
    14b0:	000014cc 	andi	zero,zero,83
    14b4:	000014e0 	cmpeqi	zero,zero,83
    14b8:	000014f8 	rdprs	zero,zero,83
    14bc:	0000156c 	andhi	zero,zero,85
    14c0:	0000151c 	xori	zero,zero,84
    14c4:	0000151c 	xori	zero,zero,84
    14c8:	0000151c 	xori	zero,zero,84
	{
		case LB_BB_LPF:
			// Disable RXVGA1 first
			lms_rxvga1_disable() ;
    14cc:	00007cc0 	call	7cc <lms_rxvga1_disable>

			// Enable BB TX and RX loopback
			lms_tx_loopback_enable( TXLB_BB ) ;
    14d0:	0009883a 	mov	r4,zero
    14d4:	00012cc0 	call	12cc <lms_tx_loopback_enable>
			lms_spi_write( 0x08, 1<<6 ) ;
    14d8:	01401004 	movi	r5,64
    14dc:	00000d06 	br	1514 <lms_loopback_enable+0x98>
			break ;

		case LB_BB_VGA2:
			// Disable RXLPF first
			lms_lpf_disable( RX ) ;
    14e0:	0009883a 	mov	r4,zero
    14e4:	000080c0 	call	80c <lms_lpf_disable>

			// Enable TX and RX loopback
			lms_tx_loopback_enable( TXLB_BB ) ;
    14e8:	0009883a 	mov	r4,zero
    14ec:	00012cc0 	call	12cc <lms_tx_loopback_enable>
			lms_spi_write( 0x08, 1<<5 ) ;
    14f0:	01400804 	movi	r5,32
    14f4:	00000706 	br	1514 <lms_loopback_enable+0x98>
			break ;

		case LB_BB_OP:
			// Disable RXLPF, RXVGA2, and RXVGA1
			lms_rxvga1_disable() ;
    14f8:	00007cc0 	call	7cc <lms_rxvga1_disable>
			lms_rxvga2_disable() ;
    14fc:	00013d40 	call	13d4 <lms_rxvga2_disable>
			lms_lpf_disable( RX ) ;
    1500:	0009883a 	mov	r4,zero
    1504:	000080c0 	call	80c <lms_lpf_disable>

			// Enable TX and RX loopback
			lms_tx_loopback_enable( TXLB_BB ) ;
    1508:	0009883a 	mov	r4,zero
    150c:	00012cc0 	call	12cc <lms_tx_loopback_enable>
			lms_spi_write( 0x08, 1<<4 ) ;
    1510:	01400404 	movi	r5,16
    1514:	01000204 	movi	r4,8
    1518:	00001306 	br	1568 <lms_loopback_enable+0xec>

		case LB_RF_LNA1:
		case LB_RF_LNA2:
		case LB_RF_LNA3:
			// Disable all LNAs
			lms_lna_select( LNA_NONE ) ;
    151c:	0009883a 	mov	r4,zero
    1520:	000141c0 	call	141c <lms_lna_select>

			// Enable AUX PA, PD[0], and loopback
			lms_tx_loopback_enable( TXLB_RF ) ;
    1524:	01000044 	movi	r4,1
    1528:	00012cc0 	call	12cc <lms_tx_loopback_enable>
			lms_spi_read( 0x7d, &data ) ;
    152c:	d80b883a 	mov	r5,sp
    1530:	01001f44 	movi	r4,125
    1534:	00008240 	call	824 <lms_spi_read>
			data |= 1 ;
    1538:	d8800003 	ldbu	r2,0(sp)
			lms_spi_write( 0x7d, data ) ;
    153c:	01001f44 	movi	r4,125
			lms_lna_select( LNA_NONE ) ;

			// Enable AUX PA, PD[0], and loopback
			lms_tx_loopback_enable( TXLB_RF ) ;
			lms_spi_read( 0x7d, &data ) ;
			data |= 1 ;
    1540:	10800054 	ori	r2,r2,1
			lms_spi_write( 0x7d, data ) ;
    1544:	11403fcc 	andi	r5,r2,255
			lms_lna_select( LNA_NONE ) ;

			// Enable AUX PA, PD[0], and loopback
			lms_tx_loopback_enable( TXLB_RF ) ;
			lms_spi_read( 0x7d, &data ) ;
			data |= 1 ;
    1548:	d8800005 	stb	r2,0(sp)
			lms_spi_write( 0x7d, data ) ;
    154c:	000043c0 	call	43c <lms_spi_write>

            // Choose the LNA (1 = LNA1, 2 = LNA2, 3 = LNA3)
            lms_spi_write( 0x08, (mode - LB_RF_LNA_START) ) ;
    1550:	817fff44 	addi	r5,r16,-3
    1554:	29403fcc 	andi	r5,r5,255
    1558:	01000204 	movi	r4,8
    155c:	000043c0 	call	43c <lms_spi_write>

            // Set magical decode test registers bit
            lms_spi_write( 0x70, (1<<1) ) ;
    1560:	01001c04 	movi	r4,112
    1564:	01400084 	movi	r5,2
    1568:	000043c0 	call	43c <lms_spi_write>
		case LB_NONE:
			// Weird
			break ;
	}
	return ;
}
    156c:	dfc00217 	ldw	ra,8(sp)
    1570:	dc000117 	ldw	r16,4(sp)
    1574:	dec00304 	addi	sp,sp,12
    1578:	f800283a 	ret

0000157c <lms_config_init>:
	return ;
}


int lms_config_init(xcvr_config_t *config)
{
    157c:	defffd04 	addi	sp,sp,-12
    1580:	dfc00215 	stw	ra,8(sp)
    1584:	dc400115 	stw	r17,4(sp)
    1588:	dc000015 	stw	r16,0(sp)
    158c:	2023883a 	mov	r17,r4

  lms_tx_enable() ;
  lms_rx_enable() ;

  lms_spi_write( 0x48, 0xc ) ;
    1590:	04000304 	movi	r16,12


int lms_config_init(xcvr_config_t *config)
{

  lms_tx_enable() ;
    1594:	0000e6c0 	call	e6c <lms_tx_enable>
  lms_rx_enable() ;
    1598:	0000ef80 	call	ef8 <lms_rx_enable>

  lms_spi_write( 0x48, 0xc ) ;
    159c:	800b883a 	mov	r5,r16
    15a0:	01001204 	movi	r4,72
    15a4:	000043c0 	call	43c <lms_spi_write>
  lms_spi_write( 0x49, 0xc ) ;
    15a8:	800b883a 	mov	r5,r16
    15ac:	01001244 	movi	r4,73
    15b0:	000043c0 	call	43c <lms_spi_write>

  lms_set_frequency( RX,  config->rx_freq_hz ) ;
    15b4:	89400117 	ldw	r5,4(r17)
    15b8:	0009883a 	mov	r4,zero
    15bc:	000093c0 	call	93c <lms_set_frequency>
  lms_set_frequency( TX,  config->tx_freq_hz ) ;
    15c0:	89400017 	ldw	r5,0(r17)
    15c4:	01000044 	movi	r4,1
    15c8:	000093c0 	call	93c <lms_set_frequency>

  lms_lna_select( config->lna  ) ;
    15cc:	89000317 	ldw	r4,12(r17)
    15d0:	000141c0 	call	141c <lms_lna_select>
  lms_pa_enable( config->pa ) ;
    15d4:	89000417 	ldw	r4,16(r17)
    15d8:	000124c0 	call	124c <lms_pa_enable>

  lms_loopback_enable(config->loopback_mode);
    15dc:	89000217 	ldw	r4,8(r17)
    15e0:	000147c0 	call	147c <lms_loopback_enable>

  return 0;
}
    15e4:	0005883a 	mov	r2,zero
    15e8:	dfc00217 	ldw	ra,8(sp)
    15ec:	dc400117 	ldw	r17,4(sp)
    15f0:	dc000017 	ldw	r16,0(sp)
    15f4:	dec00304 	addi	sp,sp,12
    15f8:	f800283a 	ret

000015fc <lms_lna_set_gain>:
	return ;
}

// Set the gain on the LNA
void lms_lna_set_gain( lms_lna_gain_t gain )
{
    15fc:	defffc04 	addi	sp,sp,-16
    1600:	dc400215 	stw	r17,8(sp)
	uint8_t data ;
	lms_spi_read( 0x75, &data ) ;
    1604:	04401d44 	movi	r17,117
	return ;
}

// Set the gain on the LNA
void lms_lna_set_gain( lms_lna_gain_t gain )
{
    1608:	dc000115 	stw	r16,4(sp)
	uint8_t data ;
	lms_spi_read( 0x75, &data ) ;
    160c:	d80b883a 	mov	r5,sp
	return ;
}

// Set the gain on the LNA
void lms_lna_set_gain( lms_lna_gain_t gain )
{
    1610:	2021883a 	mov	r16,r4
	uint8_t data ;
	lms_spi_read( 0x75, &data ) ;
    1614:	8809883a 	mov	r4,r17
	return ;
}

// Set the gain on the LNA
void lms_lna_set_gain( lms_lna_gain_t gain )
{
    1618:	dfc00315 	stw	ra,12(sp)
	uint8_t data ;
	lms_spi_read( 0x75, &data ) ;
	data &= ~(3<<6) ;
	data |= ((gain&3)<<6) ;
    161c:	840000cc 	andi	r16,r16,3

// Set the gain on the LNA
void lms_lna_set_gain( lms_lna_gain_t gain )
{
	uint8_t data ;
	lms_spi_read( 0x75, &data ) ;
    1620:	00008240 	call	824 <lms_spi_read>
	data &= ~(3<<6) ;
	data |= ((gain&3)<<6) ;
    1624:	d8800003 	ldbu	r2,0(sp)
    1628:	802091ba 	slli	r16,r16,6
	lms_spi_write( 0x75, data ) ;
    162c:	8809883a 	mov	r4,r17
void lms_lna_set_gain( lms_lna_gain_t gain )
{
	uint8_t data ;
	lms_spi_read( 0x75, &data ) ;
	data &= ~(3<<6) ;
	data |= ((gain&3)<<6) ;
    1630:	10800fcc 	andi	r2,r2,63
    1634:	1404b03a 	or	r2,r2,r16
	lms_spi_write( 0x75, data ) ;
    1638:	100b883a 	mov	r5,r2
void lms_lna_set_gain( lms_lna_gain_t gain )
{
	uint8_t data ;
	lms_spi_read( 0x75, &data ) ;
	data &= ~(3<<6) ;
	data |= ((gain&3)<<6) ;
    163c:	d8800005 	stb	r2,0(sp)
	lms_spi_write( 0x75, data ) ;
    1640:	000043c0 	call	43c <lms_spi_write>
	return ;
}
    1644:	dfc00317 	ldw	ra,12(sp)
    1648:	dc400217 	ldw	r17,8(sp)
    164c:	dc000117 	ldw	r16,4(sp)
    1650:	dec00404 	addi	sp,sp,16
    1654:	f800283a 	ret

00001658 <lms_dither_disable>:
	return ;
}

// Disable dithering on the module PLL
void lms_dither_disable( lms_module_t mod )
{
    1658:	defffd04 	addi	sp,sp,-12
    165c:	dc000115 	stw	r16,4(sp)
    1660:	dfc00215 	stw	ra,8(sp)
	uint8_t reg = (mod == RX) ? 0x24 : 0x14 ;
    1664:	04000904 	movi	r16,36
    1668:	20000126 	beq	r4,zero,1670 <lms_dither_disable+0x18>
    166c:	04000504 	movi	r16,20
	uint8_t data ;
	lms_spi_read( reg, &data ) ;
    1670:	84003fcc 	andi	r16,r16,255
    1674:	d80b883a 	mov	r5,sp
    1678:	8009883a 	mov	r4,r16
    167c:	00008240 	call	824 <lms_spi_read>
	data &= ~(1<<7) ;
    1680:	d8800003 	ldbu	r2,0(sp)
	lms_spi_write( reg, data ) ;
    1684:	8009883a 	mov	r4,r16
void lms_dither_disable( lms_module_t mod )
{
	uint8_t reg = (mod == RX) ? 0x24 : 0x14 ;
	uint8_t data ;
	lms_spi_read( reg, &data ) ;
	data &= ~(1<<7) ;
    1688:	10801fcc 	andi	r2,r2,127
	lms_spi_write( reg, data ) ;
    168c:	100b883a 	mov	r5,r2
void lms_dither_disable( lms_module_t mod )
{
	uint8_t reg = (mod == RX) ? 0x24 : 0x14 ;
	uint8_t data ;
	lms_spi_read( reg, &data ) ;
	data &= ~(1<<7) ;
    1690:	d8800005 	stb	r2,0(sp)
	lms_spi_write( reg, data ) ;
    1694:	000043c0 	call	43c <lms_spi_write>
	return ;
}
    1698:	dfc00217 	ldw	ra,8(sp)
    169c:	dc000117 	ldw	r16,4(sp)
    16a0:	dec00304 	addi	sp,sp,12
    16a4:	f800283a 	ret

000016a8 <lms_dither_enable>:
	return (lms_bw_t)data ;
}

// Enable dithering on the module PLL
void lms_dither_enable( lms_module_t mod, uint8_t nbits )
{
    16a8:	defffc04 	addi	sp,sp,-16
    16ac:	dc400215 	stw	r17,8(sp)
    16b0:	dc000115 	stw	r16,4(sp)
    16b4:	dfc00315 	stw	ra,12(sp)
	// Select the base address based on which PLL we are configuring
	uint8_t reg = (mod == RX) ? 0x24 : 0x14 ;
    16b8:	04000904 	movi	r16,36
	return (lms_bw_t)data ;
}

// Enable dithering on the module PLL
void lms_dither_enable( lms_module_t mod, uint8_t nbits )
{
    16bc:	2823883a 	mov	r17,r5
	// Select the base address based on which PLL we are configuring
	uint8_t reg = (mod == RX) ? 0x24 : 0x14 ;
    16c0:	20000126 	beq	r4,zero,16c8 <lms_dither_enable+0x20>
    16c4:	04000504 	movi	r16,20
	uint8_t data ;

	// Read what we currently have in there
	lms_spi_read( reg, &data ) ;
    16c8:	84003fcc 	andi	r16,r16,255
    16cc:	d80b883a 	mov	r5,sp
    16d0:	8009883a 	mov	r4,r16
    16d4:	00008240 	call	824 <lms_spi_read>

	// Clear out the number of bits from before
	data &= ~(7<<4) ;

	// Put in the number of bits to dither
	data |= ((nbits-1)&7) ;
    16d8:	d8800003 	ldbu	r2,0(sp)
    16dc:	00ffe004 	movi	r3,-128
    16e0:	893fffc4 	addi	r4,r17,-1
    16e4:	10c4b03a 	or	r2,r2,r3
    16e8:	00ffe3c4 	movi	r3,-113
    16ec:	10c4703a 	and	r2,r2,r3
    16f0:	210001cc 	andi	r4,r4,7
    16f4:	1104b03a 	or	r2,r2,r4

	// Write it out
	lms_spi_write( reg, data ) ;
    16f8:	114023cc 	andi	r5,r2,143
    16fc:	8009883a 	mov	r4,r16

	// Clear out the number of bits from before
	data &= ~(7<<4) ;

	// Put in the number of bits to dither
	data |= ((nbits-1)&7) ;
    1700:	d8800005 	stb	r2,0(sp)

	// Write it out
	lms_spi_write( reg, data ) ;
    1704:	000043c0 	call	43c <lms_spi_write>
	return ;
}
    1708:	dfc00317 	ldw	ra,12(sp)
    170c:	dc400217 	ldw	r17,8(sp)
    1710:	dc000117 	ldw	r16,4(sp)
    1714:	dec00404 	addi	sp,sp,16
    1718:	f800283a 	ret

0000171c <lms_get_bandwidth>:
	return ;
}

// Get the bandwidth for the selected module
lms_bw_t lms_get_bandwidth( lms_module_t mod )
{
    171c:	defffe04 	addi	sp,sp,-8
    1720:	dfc00115 	stw	ra,4(sp)
	uint8_t data ;
	uint8_t reg = (mod == RX) ? 0x54 : 0x34 ;
    1724:	00801504 	movi	r2,84
    1728:	20000126 	beq	r4,zero,1730 <lms_get_bandwidth+0x14>
    172c:	00800d04 	movi	r2,52
	lms_spi_read( reg, &data ) ;
    1730:	11003fcc 	andi	r4,r2,255
    1734:	d80b883a 	mov	r5,sp
    1738:	00008240 	call	824 <lms_spi_read>
    173c:	d8800003 	ldbu	r2,0(sp)
    1740:	10800f0c 	andi	r2,r2,60
	data &= 0x3c ;
	data >>= 2 ;
	return (lms_bw_t)data ;
}
    1744:	1004d0ba 	srli	r2,r2,2
    1748:	dfc00117 	ldw	ra,4(sp)
    174c:	dec00204 	addi	sp,sp,8
    1750:	f800283a 	ret

00001754 <lms_lpf_bypass>:
	}
	return ;
}

void lms_lpf_bypass( lms_module_t mod )
{
    1754:	defffd04 	addi	sp,sp,-12
    1758:	dc000115 	stw	r16,4(sp)
    175c:	dfc00215 	stw	ra,8(sp)
	uint8_t reg = (mod == RX) ? 0x55 : 0x35 ;
    1760:	04001544 	movi	r16,85
    1764:	20000126 	beq	r4,zero,176c <lms_lpf_bypass+0x18>
    1768:	04000d44 	movi	r16,53
	uint8_t data ;
	lms_spi_read( reg, &data ) ;
    176c:	84003fcc 	andi	r16,r16,255
    1770:	d80b883a 	mov	r5,sp
    1774:	8009883a 	mov	r4,r16
    1778:	00008240 	call	824 <lms_spi_read>
	data |= (1<<6) ;
    177c:	d8800003 	ldbu	r2,0(sp)
	lms_spi_write( reg, data ) ;
    1780:	8009883a 	mov	r4,r16
void lms_lpf_bypass( lms_module_t mod )
{
	uint8_t reg = (mod == RX) ? 0x55 : 0x35 ;
	uint8_t data ;
	lms_spi_read( reg, &data ) ;
	data |= (1<<6) ;
    1784:	10801014 	ori	r2,r2,64
	lms_spi_write( reg, data ) ;
    1788:	11403fcc 	andi	r5,r2,255
void lms_lpf_bypass( lms_module_t mod )
{
	uint8_t reg = (mod == RX) ? 0x55 : 0x35 ;
	uint8_t data ;
	lms_spi_read( reg, &data ) ;
	data |= (1<<6) ;
    178c:	d8800005 	stb	r2,0(sp)
	lms_spi_write( reg, data ) ;
    1790:	000043c0 	call	43c <lms_spi_write>
	return ;
}
    1794:	dfc00217 	ldw	ra,8(sp)
    1798:	dc000117 	ldw	r16,4(sp)
    179c:	dec00304 	addi	sp,sp,12
    17a0:	f800283a 	ret

000017a4 <lms_lpf_enable>:
	return ;
}

// When enabling an LPF, we must select both the module and the filter bandwidth
void lms_lpf_enable( lms_module_t mod, lms_bw_t bw )
{
    17a4:	defffb04 	addi	sp,sp,-20
    17a8:	dc800315 	stw	r18,12(sp)
    17ac:	dc400215 	stw	r17,8(sp)
    17b0:	dfc00415 	stw	ra,16(sp)
    17b4:	dc000115 	stw	r16,4(sp)
	uint8_t reg = (mod == RX) ? 0x54 : 0x34 ;
    17b8:	04801504 	movi	r18,84
	return ;
}

// When enabling an LPF, we must select both the module and the filter bandwidth
void lms_lpf_enable( lms_module_t mod, lms_bw_t bw )
{
    17bc:	2823883a 	mov	r17,r5
	uint8_t reg = (mod == RX) ? 0x54 : 0x34 ;
    17c0:	20000126 	beq	r4,zero,17c8 <lms_lpf_enable+0x24>
    17c4:	04800d04 	movi	r18,52
	uint8_t data ;
	// Check to see which bandwidth we have selected
	lms_spi_read( reg, &data ) ;
    17c8:	94003fcc 	andi	r16,r18,255
    17cc:	d80b883a 	mov	r5,sp
    17d0:	8009883a 	mov	r4,r16
    17d4:	00008240 	call	824 <lms_spi_read>
	if( (lms_bw_t)(data&0x3c>>2) != bw )
    17d8:	d9800003 	ldbu	r6,0(sp)
	{
		data &= ~0x3c ;
		data |= (bw<<2) ;
		data |= (1<<1) ;
    17dc:	00bff0c4 	movi	r2,-61
    17e0:	8c47883a 	add	r3,r17,r17
    17e4:	3084703a 	and	r2,r6,r2
    17e8:	18c7883a 	add	r3,r3,r3
    17ec:	10800094 	ori	r2,r2,2
    17f0:	1886b03a 	or	r3,r3,r2
{
	uint8_t reg = (mod == RX) ? 0x54 : 0x34 ;
	uint8_t data ;
	// Check to see which bandwidth we have selected
	lms_spi_read( reg, &data ) ;
	if( (lms_bw_t)(data&0x3c>>2) != bw )
    17f4:	318003cc 	andi	r6,r6,15
	{
		data &= ~0x3c ;
		data |= (bw<<2) ;
		data |= (1<<1) ;
		lms_spi_write( reg, data ) ;
    17f8:	8009883a 	mov	r4,r16
    17fc:	19403fcc 	andi	r5,r3,255
{
	uint8_t reg = (mod == RX) ? 0x54 : 0x34 ;
	uint8_t data ;
	// Check to see which bandwidth we have selected
	lms_spi_read( reg, &data ) ;
	if( (lms_bw_t)(data&0x3c>>2) != bw )
    1800:	34400226 	beq	r6,r17,180c <lms_lpf_enable+0x68>
	{
		data &= ~0x3c ;
		data |= (bw<<2) ;
		data |= (1<<1) ;
    1804:	d8c00005 	stb	r3,0(sp)
		lms_spi_write( reg, data ) ;
    1808:	000043c0 	call	43c <lms_spi_write>
	}
	// Check to see if we are bypassed
	lms_spi_read( reg+1, &data ) ;
    180c:	94000044 	addi	r16,r18,1
    1810:	84003fcc 	andi	r16,r16,255
    1814:	d80b883a 	mov	r5,sp
    1818:	8009883a 	mov	r4,r16
    181c:	00008240 	call	824 <lms_spi_read>
	if( data&(1<<6) )
    1820:	d8c00003 	ldbu	r3,0(sp)
	{
		data &= ~(1<<6) ;
    1824:	00bfefc4 	movi	r2,-65
		lms_spi_write( reg+1, data ) ;
    1828:	8009883a 	mov	r4,r16
	}
	// Check to see if we are bypassed
	lms_spi_read( reg+1, &data ) ;
	if( data&(1<<6) )
	{
		data &= ~(1<<6) ;
    182c:	1884703a 	and	r2,r3,r2
		data |= (1<<1) ;
		lms_spi_write( reg, data ) ;
	}
	// Check to see if we are bypassed
	lms_spi_read( reg+1, &data ) ;
	if( data&(1<<6) )
    1830:	18c0100c 	andi	r3,r3,64
	{
		data &= ~(1<<6) ;
		lms_spi_write( reg+1, data ) ;
    1834:	11402fcc 	andi	r5,r2,191
		data |= (1<<1) ;
		lms_spi_write( reg, data ) ;
	}
	// Check to see if we are bypassed
	lms_spi_read( reg+1, &data ) ;
	if( data&(1<<6) )
    1838:	18000226 	beq	r3,zero,1844 <lms_lpf_enable+0xa0>
	{
		data &= ~(1<<6) ;
    183c:	d8800005 	stb	r2,0(sp)
		lms_spi_write( reg+1, data ) ;
    1840:	000043c0 	call	43c <lms_spi_write>
	}
	return ;
}
    1844:	dfc00417 	ldw	ra,16(sp)
    1848:	dc800317 	ldw	r18,12(sp)
    184c:	dc400217 	ldw	r17,8(sp)
    1850:	dc000117 	ldw	r16,4(sp)
    1854:	dec00504 	addi	sp,sp,20
    1858:	f800283a 	ret

0000185c <lms_loopback_disable>:
	return mode ;
}

// Disable loopback mode - must choose which LNA to hook up and what bandwidth you want
void lms_loopback_disable( lms_lna_t lna, lms_bw_t bw )
{
    185c:	defffc04 	addi	sp,sp,-16
    1860:	dfc00315 	stw	ra,12(sp)
    1864:	dc800215 	stw	r18,8(sp)
    1868:	dc400115 	stw	r17,4(sp)
    186c:	dc000015 	stw	r16,0(sp)
    1870:	2025883a 	mov	r18,r4
    1874:	2823883a 	mov	r17,r5
	// Read which type of loopback mode we were in
	lms_loopback_mode_t mode = lms_get_loopback_mode() ;
    1878:	00010280 	call	1028 <lms_get_loopback_mode>

	// Disable all RX loopback modes
	lms_spi_write( 0x08, 0 ) ;
    187c:	01000204 	movi	r4,8
    1880:	000b883a 	mov	r5,zero

// Disable loopback mode - must choose which LNA to hook up and what bandwidth you want
void lms_loopback_disable( lms_lna_t lna, lms_bw_t bw )
{
	// Read which type of loopback mode we were in
	lms_loopback_mode_t mode = lms_get_loopback_mode() ;
    1884:	1021883a 	mov	r16,r2

	// Disable all RX loopback modes
	lms_spi_write( 0x08, 0 ) ;
    1888:	000043c0 	call	43c <lms_spi_write>

	switch(mode)
    188c:	00800184 	movi	r2,6
    1890:	14003136 	bltu	r2,r16,1958 <lms_loopback_disable+0xfc>
    1894:	8405883a 	add	r2,r16,r16
    1898:	1085883a 	add	r2,r2,r2
    189c:	00c00034 	movhi	r3,0
    18a0:	18c62c04 	addi	r3,r3,6320
    18a4:	10c5883a 	add	r2,r2,r3
    18a8:	10800017 	ldw	r2,0(r2)
    18ac:	1000683a 	jmp	r2
    18b0:	000018cc 	andi	zero,zero,99
    18b4:	000018d8 	cmpnei	zero,zero,99
    18b8:	00001900 	call	190 <si5338_read+0x60>
    18bc:	00001958 	cmpnei	zero,zero,101
    18c0:	00001934 	movhi	zero,100
    18c4:	00001934 	movhi	zero,100
    18c8:	00001934 	movhi	zero,100
	{
		case LB_BB_LPF:
			// Disable TX baseband loopback
			lms_tx_loopback_disable( TXLB_BB ) ;
    18cc:	0009883a 	mov	r4,zero
    18d0:	00011c00 	call	11c0 <lms_tx_loopback_disable>
    18d4:	00001106 	br	191c <lms_loopback_disable+0xc0>
			// Enable RXVGA1
			lms_rxvga1_enable() ;
			break ;
		case LB_BB_VGA2:
			// Disable TX baseband loopback
			lms_tx_loopback_disable( TXLB_BB ) ;
    18d8:	0009883a 	mov	r4,zero
    18dc:	00011c00 	call	11c0 <lms_tx_loopback_disable>
			// Enable RXLPF
			lms_lpf_enable( RX, bw ) ;
    18e0:	880b883a 	mov	r5,r17
    18e4:	0009883a 	mov	r4,zero
		case LB_NONE:
			// Weird
			break ;
	}
	return ;
}
    18e8:	dfc00317 	ldw	ra,12(sp)
    18ec:	dc800217 	ldw	r18,8(sp)
    18f0:	dc400117 	ldw	r17,4(sp)
    18f4:	dc000017 	ldw	r16,0(sp)
    18f8:	dec00404 	addi	sp,sp,16
			break ;
		case LB_BB_VGA2:
			// Disable TX baseband loopback
			lms_tx_loopback_disable( TXLB_BB ) ;
			// Enable RXLPF
			lms_lpf_enable( RX, bw ) ;
    18fc:	00017a41 	jmpi	17a4 <lms_lpf_enable>
			break ;
		case LB_BB_OP:
			// Disable TX baseband loopback
			lms_tx_loopback_disable( TXLB_BB ) ;
    1900:	0009883a 	mov	r4,zero
    1904:	00011c00 	call	11c0 <lms_tx_loopback_disable>
			// Enable RXLPF, RXVGA1 and RXVGA2
			lms_lpf_enable( RX, bw ) ;
    1908:	880b883a 	mov	r5,r17
    190c:	0009883a 	mov	r4,zero
    1910:	00017a40 	call	17a4 <lms_lpf_enable>
			lms_rxvga2_enable( 30/3 ) ;
    1914:	01000284 	movi	r4,10
    1918:	000137c0 	call	137c <lms_rxvga2_enable>
		case LB_NONE:
			// Weird
			break ;
	}
	return ;
}
    191c:	dfc00317 	ldw	ra,12(sp)
    1920:	dc800217 	ldw	r18,8(sp)
    1924:	dc400117 	ldw	r17,4(sp)
    1928:	dc000017 	ldw	r16,0(sp)
    192c:	dec00404 	addi	sp,sp,16
			// Disable TX baseband loopback
			lms_tx_loopback_disable( TXLB_BB ) ;
			// Enable RXLPF, RXVGA1 and RXVGA2
			lms_lpf_enable( RX, bw ) ;
			lms_rxvga2_enable( 30/3 ) ;
			lms_rxvga1_enable() ;
    1930:	00007c01 	jmpi	7c0 <lms_rxvga1_enable>
			break ;
		case LB_RF_LNA1:
		case LB_RF_LNA2:
		case LB_RF_LNA3:
			// Disable TX RF loopback
			lms_tx_loopback_disable( TXLB_RF ) ;
    1934:	01000044 	movi	r4,1
    1938:	00011c00 	call	11c0 <lms_tx_loopback_disable>
			// Enable selected LNA
			lms_lna_select( lna ) ;
    193c:	9009883a 	mov	r4,r18
		case LB_NONE:
			// Weird
			break ;
	}
	return ;
}
    1940:	dfc00317 	ldw	ra,12(sp)
    1944:	dc800217 	ldw	r18,8(sp)
    1948:	dc400117 	ldw	r17,4(sp)
    194c:	dc000017 	ldw	r16,0(sp)
    1950:	dec00404 	addi	sp,sp,16
		case LB_RF_LNA2:
		case LB_RF_LNA3:
			// Disable TX RF loopback
			lms_tx_loopback_disable( TXLB_RF ) ;
			// Enable selected LNA
			lms_lna_select( lna ) ;
    1954:	000141c1 	jmpi	141c <lms_lna_select>
		case LB_NONE:
			// Weird
			break ;
	}
	return ;
}
    1958:	dfc00317 	ldw	ra,12(sp)
    195c:	dc800217 	ldw	r18,8(sp)
    1960:	dc400117 	ldw	r17,4(sp)
    1964:	dc000017 	ldw	r16,0(sp)
    1968:	dec00404 	addi	sp,sp,16
    196c:	f800283a 	ret

00001970 <dac_write>:
     0x7C,
     0x7D
} ;

// Trim DAC write
void dac_write( uint16_t val ) {
    1970:	defff704 	addi	sp,sp,-36
    1974:	dc000415 	stw	r16,16(sp)
	alt_printf( "DAC Writing: %x\n", val ) ;
    1978:	243fffcc 	andi	r16,r4,65535
     0x7C,
     0x7D
} ;

// Trim DAC write
void dac_write( uint16_t val ) {
    197c:	dcc00715 	stw	r19,28(sp)
	alt_printf( "DAC Writing: %x\n", val ) ;
    1980:	800b883a 	mov	r5,r16
     0x7C,
     0x7D
} ;

// Trim DAC write
void dac_write( uint16_t val ) {
    1984:	2027883a 	mov	r19,r4
	alt_printf( "DAC Writing: %x\n", val ) ;
    1988:	01000034 	movhi	r4,0
    198c:	210c8b04 	addi	r4,r4,12844
     0x7C,
     0x7D
} ;

// Trim DAC write
void dac_write( uint16_t val ) {
    1990:	dfc00815 	stw	ra,32(sp)
    1994:	dc800615 	stw	r18,24(sp)
    1998:	dc400515 	stw	r17,20(sp)
	alt_printf( "DAC Writing: %x\n", val ) ;
	uint8_t data[3] ;
	data[0] = 0x28, data[1] = 0, data[2] = 0 ;
	alt_avalon_spi_command( SPI_1_BASE, 0, 3, data, 0, 0, 0 ) ;
    199c:	048000c4 	movi	r18,3
     0x7D
} ;

// Trim DAC write
void dac_write( uint16_t val ) {
	alt_printf( "DAC Writing: %x\n", val ) ;
    19a0:	0002ca40 	call	2ca4 <alt_printf>
	uint8_t data[3] ;
	data[0] = 0x28, data[1] = 0, data[2] = 0 ;
	alt_avalon_spi_command( SPI_1_BASE, 0, 3, data, 0, 0, 0 ) ;
    19a4:	044000b4 	movhi	r17,2
    19a8:	8c540004 	addi	r17,r17,20480
    19ac:	8809883a 	mov	r4,r17
    19b0:	900d883a 	mov	r6,r18
    19b4:	d9c00304 	addi	r7,sp,12
    19b8:	000b883a 	mov	r5,zero

// Trim DAC write
void dac_write( uint16_t val ) {
	alt_printf( "DAC Writing: %x\n", val ) ;
	uint8_t data[3] ;
	data[0] = 0x28, data[1] = 0, data[2] = 0 ;
    19bc:	00800a04 	movi	r2,40
	alt_avalon_spi_command( SPI_1_BASE, 0, 3, data, 0, 0, 0 ) ;
	data[0] = 0x08, data[1] = (val>>8)&0xff, data[2] = val&0xff  ;
    19c0:	8020d23a 	srli	r16,r16,8

// Trim DAC write
void dac_write( uint16_t val ) {
	alt_printf( "DAC Writing: %x\n", val ) ;
	uint8_t data[3] ;
	data[0] = 0x28, data[1] = 0, data[2] = 0 ;
    19c4:	d8800305 	stb	r2,12(sp)
    19c8:	d8000345 	stb	zero,13(sp)
    19cc:	d8000385 	stb	zero,14(sp)
	alt_avalon_spi_command( SPI_1_BASE, 0, 3, data, 0, 0, 0 ) ;
    19d0:	d8000015 	stw	zero,0(sp)
    19d4:	d8000115 	stw	zero,4(sp)
    19d8:	d8000215 	stw	zero,8(sp)
    19dc:	0002f400 	call	2f40 <alt_avalon_spi_command>
	data[0] = 0x08, data[1] = (val>>8)&0xff, data[2] = val&0xff  ;
    19e0:	00800204 	movi	r2,8
	alt_avalon_spi_command( SPI_1_BASE, 0, 3, data, 0, 0, 0) ;
    19e4:	8809883a 	mov	r4,r17
    19e8:	900d883a 	mov	r6,r18
    19ec:	000b883a 	mov	r5,zero
    19f0:	d9c00304 	addi	r7,sp,12
void dac_write( uint16_t val ) {
	alt_printf( "DAC Writing: %x\n", val ) ;
	uint8_t data[3] ;
	data[0] = 0x28, data[1] = 0, data[2] = 0 ;
	alt_avalon_spi_command( SPI_1_BASE, 0, 3, data, 0, 0, 0 ) ;
	data[0] = 0x08, data[1] = (val>>8)&0xff, data[2] = val&0xff  ;
    19f4:	d8800305 	stb	r2,12(sp)
    19f8:	dc000345 	stb	r16,13(sp)
    19fc:	dcc00385 	stb	r19,14(sp)
	alt_avalon_spi_command( SPI_1_BASE, 0, 3, data, 0, 0, 0) ;
    1a00:	d8000015 	stw	zero,0(sp)
    1a04:	d8000115 	stw	zero,4(sp)
    1a08:	d8000215 	stw	zero,8(sp)
    1a0c:	0002f400 	call	2f40 <alt_avalon_spi_command>
	return ;
}
    1a10:	dfc00817 	ldw	ra,32(sp)
    1a14:	dcc00717 	ldw	r19,28(sp)
    1a18:	dc800617 	ldw	r18,24(sp)
    1a1c:	dc400517 	ldw	r17,20(sp)
    1a20:	dc000417 	ldw	r16,16(sp)
    1a24:	dec00904 	addi	sp,sp,36
    1a28:	f800283a 	ret

00001a2c <__udivdi3>:
    1a2c:	defff104 	addi	sp,sp,-60
    1a30:	0015883a 	mov	r10,zero
    1a34:	2005883a 	mov	r2,r4
    1a38:	3011883a 	mov	r8,r6
    1a3c:	df000d15 	stw	fp,52(sp)
    1a40:	dd400a15 	stw	r21,40(sp)
    1a44:	dcc00815 	stw	r19,32(sp)
    1a48:	dfc00e15 	stw	ra,56(sp)
    1a4c:	ddc00c15 	stw	r23,48(sp)
    1a50:	dd800b15 	stw	r22,44(sp)
    1a54:	dd000915 	stw	r20,36(sp)
    1a58:	dc800715 	stw	r18,28(sp)
    1a5c:	dc400615 	stw	r17,24(sp)
    1a60:	dc000515 	stw	r16,20(sp)
    1a64:	da800315 	stw	r10,12(sp)
    1a68:	4027883a 	mov	r19,r8
    1a6c:	1039883a 	mov	fp,r2
    1a70:	282b883a 	mov	r21,r5
    1a74:	da800415 	stw	r10,16(sp)
    1a78:	3800401e 	bne	r7,zero,1b7c <__udivdi3+0x150>
    1a7c:	2a006536 	bltu	r5,r8,1c14 <__udivdi3+0x1e8>
    1a80:	4000b526 	beq	r8,zero,1d58 <__udivdi3+0x32c>
    1a84:	00bfffd4 	movui	r2,65535
    1a88:	14c0ad36 	bltu	r2,r19,1d40 <__udivdi3+0x314>
    1a8c:	00803fc4 	movi	r2,255
    1a90:	14c15e36 	bltu	r2,r19,200c <__udivdi3+0x5e0>
    1a94:	000b883a 	mov	r5,zero
    1a98:	0005883a 	mov	r2,zero
    1a9c:	9884d83a 	srl	r2,r19,r2
    1aa0:	01000034 	movhi	r4,0
    1aa4:	210ced04 	addi	r4,r4,13236
    1aa8:	01800804 	movi	r6,32
    1aac:	1105883a 	add	r2,r2,r4
    1ab0:	10c00003 	ldbu	r3,0(r2)
    1ab4:	28c7883a 	add	r3,r5,r3
    1ab8:	30e9c83a 	sub	r20,r6,r3
    1abc:	a0010a1e 	bne	r20,zero,1ee8 <__udivdi3+0x4bc>
    1ac0:	982ed43a 	srli	r23,r19,16
    1ac4:	acebc83a 	sub	r21,r21,r19
    1ac8:	9dbfffcc 	andi	r22,r19,65535
    1acc:	05000044 	movi	r20,1
    1ad0:	a809883a 	mov	r4,r21
    1ad4:	b80b883a 	mov	r5,r23
    1ad8:	00021d40 	call	21d4 <__udivsi3>
    1adc:	100b883a 	mov	r5,r2
    1ae0:	b009883a 	mov	r4,r22
    1ae4:	1021883a 	mov	r16,r2
    1ae8:	00021e40 	call	21e4 <__mulsi3>
    1aec:	a809883a 	mov	r4,r21
    1af0:	b80b883a 	mov	r5,r23
    1af4:	1023883a 	mov	r17,r2
    1af8:	00021dc0 	call	21dc <__umodsi3>
    1afc:	1004943a 	slli	r2,r2,16
    1b00:	e006d43a 	srli	r3,fp,16
    1b04:	10c4b03a 	or	r2,r2,r3
    1b08:	1440042e 	bgeu	r2,r17,1b1c <__udivdi3+0xf0>
    1b0c:	14c5883a 	add	r2,r2,r19
    1b10:	843fffc4 	addi	r16,r16,-1
    1b14:	14c00136 	bltu	r2,r19,1b1c <__udivdi3+0xf0>
    1b18:	14415c36 	bltu	r2,r17,208c <__udivdi3+0x660>
    1b1c:	1463c83a 	sub	r17,r2,r17
    1b20:	8809883a 	mov	r4,r17
    1b24:	b80b883a 	mov	r5,r23
    1b28:	00021d40 	call	21d4 <__udivsi3>
    1b2c:	100b883a 	mov	r5,r2
    1b30:	b009883a 	mov	r4,r22
    1b34:	102b883a 	mov	r21,r2
    1b38:	00021e40 	call	21e4 <__mulsi3>
    1b3c:	8809883a 	mov	r4,r17
    1b40:	b80b883a 	mov	r5,r23
    1b44:	1025883a 	mov	r18,r2
    1b48:	00021dc0 	call	21dc <__umodsi3>
    1b4c:	1004943a 	slli	r2,r2,16
    1b50:	e0ffffcc 	andi	r3,fp,65535
    1b54:	10c4b03a 	or	r2,r2,r3
    1b58:	1480042e 	bgeu	r2,r18,1b6c <__udivdi3+0x140>
    1b5c:	9885883a 	add	r2,r19,r2
    1b60:	ad7fffc4 	addi	r21,r21,-1
    1b64:	14c00136 	bltu	r2,r19,1b6c <__udivdi3+0x140>
    1b68:	14813c36 	bltu	r2,r18,205c <__udivdi3+0x630>
    1b6c:	8004943a 	slli	r2,r16,16
    1b70:	a009883a 	mov	r4,r20
    1b74:	a884b03a 	or	r2,r21,r2
    1b78:	00001506 	br	1bd0 <__udivdi3+0x1a4>
    1b7c:	380d883a 	mov	r6,r7
    1b80:	29c06c36 	bltu	r5,r7,1d34 <__udivdi3+0x308>
    1b84:	00bfffd4 	movui	r2,65535
    1b88:	11c06436 	bltu	r2,r7,1d1c <__udivdi3+0x2f0>
    1b8c:	00803fc4 	movi	r2,255
    1b90:	11c11836 	bltu	r2,r7,1ff4 <__udivdi3+0x5c8>
    1b94:	000b883a 	mov	r5,zero
    1b98:	0005883a 	mov	r2,zero
    1b9c:	3084d83a 	srl	r2,r6,r2
    1ba0:	01000034 	movhi	r4,0
    1ba4:	210ced04 	addi	r4,r4,13236
    1ba8:	01c00804 	movi	r7,32
    1bac:	1105883a 	add	r2,r2,r4
    1bb0:	10c00003 	ldbu	r3,0(r2)
    1bb4:	28c7883a 	add	r3,r5,r3
    1bb8:	38edc83a 	sub	r22,r7,r3
    1bbc:	b000731e 	bne	r22,zero,1d8c <__udivdi3+0x360>
    1bc0:	35400136 	bltu	r6,r21,1bc8 <__udivdi3+0x19c>
    1bc4:	e4c05b36 	bltu	fp,r19,1d34 <__udivdi3+0x308>
    1bc8:	00800044 	movi	r2,1
    1bcc:	0009883a 	mov	r4,zero
    1bd0:	d8800315 	stw	r2,12(sp)
    1bd4:	d9400317 	ldw	r5,12(sp)
    1bd8:	2007883a 	mov	r3,r4
    1bdc:	d9000415 	stw	r4,16(sp)
    1be0:	2805883a 	mov	r2,r5
    1be4:	dfc00e17 	ldw	ra,56(sp)
    1be8:	df000d17 	ldw	fp,52(sp)
    1bec:	ddc00c17 	ldw	r23,48(sp)
    1bf0:	dd800b17 	ldw	r22,44(sp)
    1bf4:	dd400a17 	ldw	r21,40(sp)
    1bf8:	dd000917 	ldw	r20,36(sp)
    1bfc:	dcc00817 	ldw	r19,32(sp)
    1c00:	dc800717 	ldw	r18,28(sp)
    1c04:	dc400617 	ldw	r17,24(sp)
    1c08:	dc000517 	ldw	r16,20(sp)
    1c0c:	dec00f04 	addi	sp,sp,60
    1c10:	f800283a 	ret
    1c14:	00bfffd4 	movui	r2,65535
    1c18:	12005636 	bltu	r2,r8,1d74 <__udivdi3+0x348>
    1c1c:	00803fc4 	movi	r2,255
    1c20:	12010036 	bltu	r2,r8,2024 <__udivdi3+0x5f8>
    1c24:	000b883a 	mov	r5,zero
    1c28:	0005883a 	mov	r2,zero
    1c2c:	9884d83a 	srl	r2,r19,r2
    1c30:	01000034 	movhi	r4,0
    1c34:	210ced04 	addi	r4,r4,13236
    1c38:	01800804 	movi	r6,32
    1c3c:	1105883a 	add	r2,r2,r4
    1c40:	10c00003 	ldbu	r3,0(r2)
    1c44:	28c7883a 	add	r3,r5,r3
    1c48:	30cbc83a 	sub	r5,r6,r3
    1c4c:	28000626 	beq	r5,zero,1c68 <__udivdi3+0x23c>
    1c50:	3145c83a 	sub	r2,r6,r5
    1c54:	e084d83a 	srl	r2,fp,r2
    1c58:	a946983a 	sll	r3,r21,r5
    1c5c:	e178983a 	sll	fp,fp,r5
    1c60:	9966983a 	sll	r19,r19,r5
    1c64:	18aab03a 	or	r21,r3,r2
    1c68:	982ed43a 	srli	r23,r19,16
    1c6c:	a809883a 	mov	r4,r21
    1c70:	9cbfffcc 	andi	r18,r19,65535
    1c74:	b80b883a 	mov	r5,r23
    1c78:	00021d40 	call	21d4 <__udivsi3>
    1c7c:	100b883a 	mov	r5,r2
    1c80:	9009883a 	mov	r4,r18
    1c84:	1021883a 	mov	r16,r2
    1c88:	00021e40 	call	21e4 <__mulsi3>
    1c8c:	a809883a 	mov	r4,r21
    1c90:	b80b883a 	mov	r5,r23
    1c94:	1023883a 	mov	r17,r2
    1c98:	00021dc0 	call	21dc <__umodsi3>
    1c9c:	1004943a 	slli	r2,r2,16
    1ca0:	e006d43a 	srli	r3,fp,16
    1ca4:	10c4b03a 	or	r2,r2,r3
    1ca8:	1440042e 	bgeu	r2,r17,1cbc <__udivdi3+0x290>
    1cac:	14c5883a 	add	r2,r2,r19
    1cb0:	843fffc4 	addi	r16,r16,-1
    1cb4:	14c00136 	bltu	r2,r19,1cbc <__udivdi3+0x290>
    1cb8:	1440ea36 	bltu	r2,r17,2064 <__udivdi3+0x638>
    1cbc:	1463c83a 	sub	r17,r2,r17
    1cc0:	8809883a 	mov	r4,r17
    1cc4:	b80b883a 	mov	r5,r23
    1cc8:	00021d40 	call	21d4 <__udivsi3>
    1ccc:	100b883a 	mov	r5,r2
    1cd0:	9009883a 	mov	r4,r18
    1cd4:	102b883a 	mov	r21,r2
    1cd8:	00021e40 	call	21e4 <__mulsi3>
    1cdc:	8809883a 	mov	r4,r17
    1ce0:	b80b883a 	mov	r5,r23
    1ce4:	1025883a 	mov	r18,r2
    1ce8:	00021dc0 	call	21dc <__umodsi3>
    1cec:	1004943a 	slli	r2,r2,16
    1cf0:	e0ffffcc 	andi	r3,fp,65535
    1cf4:	10c4b03a 	or	r2,r2,r3
    1cf8:	1480042e 	bgeu	r2,r18,1d0c <__udivdi3+0x2e0>
    1cfc:	9885883a 	add	r2,r19,r2
    1d00:	ad7fffc4 	addi	r21,r21,-1
    1d04:	14c00136 	bltu	r2,r19,1d0c <__udivdi3+0x2e0>
    1d08:	1480d936 	bltu	r2,r18,2070 <__udivdi3+0x644>
    1d0c:	8004943a 	slli	r2,r16,16
    1d10:	0009883a 	mov	r4,zero
    1d14:	a884b03a 	or	r2,r21,r2
    1d18:	003fad06 	br	1bd0 <__udivdi3+0x1a4>
    1d1c:	00804034 	movhi	r2,256
    1d20:	10bfffc4 	addi	r2,r2,-1
    1d24:	11c0b636 	bltu	r2,r7,2000 <__udivdi3+0x5d4>
    1d28:	01400404 	movi	r5,16
    1d2c:	2805883a 	mov	r2,r5
    1d30:	003f9a06 	br	1b9c <__udivdi3+0x170>
    1d34:	0005883a 	mov	r2,zero
    1d38:	0009883a 	mov	r4,zero
    1d3c:	003fa406 	br	1bd0 <__udivdi3+0x1a4>
    1d40:	00804034 	movhi	r2,256
    1d44:	10bfffc4 	addi	r2,r2,-1
    1d48:	14c0b336 	bltu	r2,r19,2018 <__udivdi3+0x5ec>
    1d4c:	01400404 	movi	r5,16
    1d50:	2805883a 	mov	r2,r5
    1d54:	003f5106 	br	1a9c <__udivdi3+0x70>
    1d58:	01000044 	movi	r4,1
    1d5c:	000b883a 	mov	r5,zero
    1d60:	00021d40 	call	21d4 <__udivsi3>
    1d64:	1027883a 	mov	r19,r2
    1d68:	00bfffd4 	movui	r2,65535
    1d6c:	14fff436 	bltu	r2,r19,1d40 <__udivdi3+0x314>
    1d70:	003f4606 	br	1a8c <__udivdi3+0x60>
    1d74:	00804034 	movhi	r2,256
    1d78:	10bfffc4 	addi	r2,r2,-1
    1d7c:	1200ac36 	bltu	r2,r8,2030 <__udivdi3+0x604>
    1d80:	01400404 	movi	r5,16
    1d84:	2805883a 	mov	r2,r5
    1d88:	003fa806 	br	1c2c <__udivdi3+0x200>
    1d8c:	3d85c83a 	sub	r2,r7,r22
    1d90:	3588983a 	sll	r4,r6,r22
    1d94:	9886d83a 	srl	r3,r19,r2
    1d98:	a8a2d83a 	srl	r17,r21,r2
    1d9c:	e084d83a 	srl	r2,fp,r2
    1da0:	20eeb03a 	or	r23,r4,r3
    1da4:	b824d43a 	srli	r18,r23,16
    1da8:	ad86983a 	sll	r3,r21,r22
    1dac:	8809883a 	mov	r4,r17
    1db0:	900b883a 	mov	r5,r18
    1db4:	1886b03a 	or	r3,r3,r2
    1db8:	d8c00115 	stw	r3,4(sp)
    1dbc:	bc3fffcc 	andi	r16,r23,65535
    1dc0:	00021d40 	call	21d4 <__udivsi3>
    1dc4:	100b883a 	mov	r5,r2
    1dc8:	8009883a 	mov	r4,r16
    1dcc:	1029883a 	mov	r20,r2
    1dd0:	00021e40 	call	21e4 <__mulsi3>
    1dd4:	900b883a 	mov	r5,r18
    1dd8:	8809883a 	mov	r4,r17
    1ddc:	102b883a 	mov	r21,r2
    1de0:	00021dc0 	call	21dc <__umodsi3>
    1de4:	d9400117 	ldw	r5,4(sp)
    1de8:	1004943a 	slli	r2,r2,16
    1dec:	9da6983a 	sll	r19,r19,r22
    1df0:	2806d43a 	srli	r3,r5,16
    1df4:	10c4b03a 	or	r2,r2,r3
    1df8:	1540032e 	bgeu	r2,r21,1e08 <__udivdi3+0x3dc>
    1dfc:	15c5883a 	add	r2,r2,r23
    1e00:	a53fffc4 	addi	r20,r20,-1
    1e04:	15c0912e 	bgeu	r2,r23,204c <__udivdi3+0x620>
    1e08:	1563c83a 	sub	r17,r2,r21
    1e0c:	8809883a 	mov	r4,r17
    1e10:	900b883a 	mov	r5,r18
    1e14:	00021d40 	call	21d4 <__udivsi3>
    1e18:	100b883a 	mov	r5,r2
    1e1c:	8009883a 	mov	r4,r16
    1e20:	102b883a 	mov	r21,r2
    1e24:	00021e40 	call	21e4 <__mulsi3>
    1e28:	8809883a 	mov	r4,r17
    1e2c:	900b883a 	mov	r5,r18
    1e30:	1021883a 	mov	r16,r2
    1e34:	00021dc0 	call	21dc <__umodsi3>
    1e38:	da800117 	ldw	r10,4(sp)
    1e3c:	1004943a 	slli	r2,r2,16
    1e40:	50ffffcc 	andi	r3,r10,65535
    1e44:	10c6b03a 	or	r3,r2,r3
    1e48:	1c00032e 	bgeu	r3,r16,1e58 <__udivdi3+0x42c>
    1e4c:	1dc7883a 	add	r3,r3,r23
    1e50:	ad7fffc4 	addi	r21,r21,-1
    1e54:	1dc0792e 	bgeu	r3,r23,203c <__udivdi3+0x610>
    1e58:	a004943a 	slli	r2,r20,16
    1e5c:	982ed43a 	srli	r23,r19,16
    1e60:	9cffffcc 	andi	r19,r19,65535
    1e64:	a8a4b03a 	or	r18,r21,r2
    1e68:	947fffcc 	andi	r17,r18,65535
    1e6c:	902ad43a 	srli	r21,r18,16
    1e70:	8809883a 	mov	r4,r17
    1e74:	980b883a 	mov	r5,r19
    1e78:	1c21c83a 	sub	r16,r3,r16
    1e7c:	00021e40 	call	21e4 <__mulsi3>
    1e80:	8809883a 	mov	r4,r17
    1e84:	b80b883a 	mov	r5,r23
    1e88:	1029883a 	mov	r20,r2
    1e8c:	00021e40 	call	21e4 <__mulsi3>
    1e90:	980b883a 	mov	r5,r19
    1e94:	a809883a 	mov	r4,r21
    1e98:	1023883a 	mov	r17,r2
    1e9c:	00021e40 	call	21e4 <__mulsi3>
    1ea0:	a809883a 	mov	r4,r21
    1ea4:	b80b883a 	mov	r5,r23
    1ea8:	1027883a 	mov	r19,r2
    1eac:	00021e40 	call	21e4 <__mulsi3>
    1eb0:	1009883a 	mov	r4,r2
    1eb4:	a004d43a 	srli	r2,r20,16
    1eb8:	8ce3883a 	add	r17,r17,r19
    1ebc:	1447883a 	add	r3,r2,r17
    1ec0:	1cc0022e 	bgeu	r3,r19,1ecc <__udivdi3+0x4a0>
    1ec4:	00800074 	movhi	r2,1
    1ec8:	2089883a 	add	r4,r4,r2
    1ecc:	1804d43a 	srli	r2,r3,16
    1ed0:	2085883a 	add	r2,r4,r2
    1ed4:	80804436 	bltu	r16,r2,1fe8 <__udivdi3+0x5bc>
    1ed8:	80803e26 	beq	r16,r2,1fd4 <__udivdi3+0x5a8>
    1edc:	9005883a 	mov	r2,r18
    1ee0:	0009883a 	mov	r4,zero
    1ee4:	003f3a06 	br	1bd0 <__udivdi3+0x1a4>
    1ee8:	9d26983a 	sll	r19,r19,r20
    1eec:	3505c83a 	sub	r2,r6,r20
    1ef0:	a8a2d83a 	srl	r17,r21,r2
    1ef4:	982ed43a 	srli	r23,r19,16
    1ef8:	e084d83a 	srl	r2,fp,r2
    1efc:	ad06983a 	sll	r3,r21,r20
    1f00:	8809883a 	mov	r4,r17
    1f04:	b80b883a 	mov	r5,r23
    1f08:	1886b03a 	or	r3,r3,r2
    1f0c:	d8c00015 	stw	r3,0(sp)
    1f10:	9dbfffcc 	andi	r22,r19,65535
    1f14:	00021d40 	call	21d4 <__udivsi3>
    1f18:	100b883a 	mov	r5,r2
    1f1c:	b009883a 	mov	r4,r22
    1f20:	d8800215 	stw	r2,8(sp)
    1f24:	00021e40 	call	21e4 <__mulsi3>
    1f28:	8809883a 	mov	r4,r17
    1f2c:	b80b883a 	mov	r5,r23
    1f30:	102b883a 	mov	r21,r2
    1f34:	00021dc0 	call	21dc <__umodsi3>
    1f38:	d9000017 	ldw	r4,0(sp)
    1f3c:	1004943a 	slli	r2,r2,16
    1f40:	2006d43a 	srli	r3,r4,16
    1f44:	10c4b03a 	or	r2,r2,r3
    1f48:	1540052e 	bgeu	r2,r21,1f60 <__udivdi3+0x534>
    1f4c:	d9400217 	ldw	r5,8(sp)
    1f50:	14c5883a 	add	r2,r2,r19
    1f54:	297fffc4 	addi	r5,r5,-1
    1f58:	d9400215 	stw	r5,8(sp)
    1f5c:	14c0462e 	bgeu	r2,r19,2078 <__udivdi3+0x64c>
    1f60:	1563c83a 	sub	r17,r2,r21
    1f64:	8809883a 	mov	r4,r17
    1f68:	b80b883a 	mov	r5,r23
    1f6c:	00021d40 	call	21d4 <__udivsi3>
    1f70:	100b883a 	mov	r5,r2
    1f74:	b009883a 	mov	r4,r22
    1f78:	1025883a 	mov	r18,r2
    1f7c:	00021e40 	call	21e4 <__mulsi3>
    1f80:	8809883a 	mov	r4,r17
    1f84:	b80b883a 	mov	r5,r23
    1f88:	1021883a 	mov	r16,r2
    1f8c:	00021dc0 	call	21dc <__umodsi3>
    1f90:	da800017 	ldw	r10,0(sp)
    1f94:	1004943a 	slli	r2,r2,16
    1f98:	50ffffcc 	andi	r3,r10,65535
    1f9c:	10c6b03a 	or	r3,r2,r3
    1fa0:	1c00062e 	bgeu	r3,r16,1fbc <__udivdi3+0x590>
    1fa4:	1cc7883a 	add	r3,r3,r19
    1fa8:	94bfffc4 	addi	r18,r18,-1
    1fac:	1cc00336 	bltu	r3,r19,1fbc <__udivdi3+0x590>
    1fb0:	1c00022e 	bgeu	r3,r16,1fbc <__udivdi3+0x590>
    1fb4:	94bfffc4 	addi	r18,r18,-1
    1fb8:	1cc7883a 	add	r3,r3,r19
    1fbc:	d9000217 	ldw	r4,8(sp)
    1fc0:	e538983a 	sll	fp,fp,r20
    1fc4:	1c2bc83a 	sub	r21,r3,r16
    1fc8:	2004943a 	slli	r2,r4,16
    1fcc:	90a8b03a 	or	r20,r18,r2
    1fd0:	003ebf06 	br	1ad0 <__udivdi3+0xa4>
    1fd4:	1804943a 	slli	r2,r3,16
    1fd8:	e588983a 	sll	r4,fp,r22
    1fdc:	a0ffffcc 	andi	r3,r20,65535
    1fe0:	10c5883a 	add	r2,r2,r3
    1fe4:	20bfbd2e 	bgeu	r4,r2,1edc <__udivdi3+0x4b0>
    1fe8:	90bfffc4 	addi	r2,r18,-1
    1fec:	0009883a 	mov	r4,zero
    1ff0:	003ef706 	br	1bd0 <__udivdi3+0x1a4>
    1ff4:	01400204 	movi	r5,8
    1ff8:	2805883a 	mov	r2,r5
    1ffc:	003ee706 	br	1b9c <__udivdi3+0x170>
    2000:	01400604 	movi	r5,24
    2004:	2805883a 	mov	r2,r5
    2008:	003ee406 	br	1b9c <__udivdi3+0x170>
    200c:	01400204 	movi	r5,8
    2010:	2805883a 	mov	r2,r5
    2014:	003ea106 	br	1a9c <__udivdi3+0x70>
    2018:	01400604 	movi	r5,24
    201c:	2805883a 	mov	r2,r5
    2020:	003e9e06 	br	1a9c <__udivdi3+0x70>
    2024:	01400204 	movi	r5,8
    2028:	2805883a 	mov	r2,r5
    202c:	003eff06 	br	1c2c <__udivdi3+0x200>
    2030:	01400604 	movi	r5,24
    2034:	2805883a 	mov	r2,r5
    2038:	003efc06 	br	1c2c <__udivdi3+0x200>
    203c:	1c3f862e 	bgeu	r3,r16,1e58 <__udivdi3+0x42c>
    2040:	1dc7883a 	add	r3,r3,r23
    2044:	ad7fffc4 	addi	r21,r21,-1
    2048:	003f8306 	br	1e58 <__udivdi3+0x42c>
    204c:	157f6e2e 	bgeu	r2,r21,1e08 <__udivdi3+0x3dc>
    2050:	a53fffc4 	addi	r20,r20,-1
    2054:	15c5883a 	add	r2,r2,r23
    2058:	003f6b06 	br	1e08 <__udivdi3+0x3dc>
    205c:	ad7fffc4 	addi	r21,r21,-1
    2060:	003ec206 	br	1b6c <__udivdi3+0x140>
    2064:	843fffc4 	addi	r16,r16,-1
    2068:	14c5883a 	add	r2,r2,r19
    206c:	003f1306 	br	1cbc <__udivdi3+0x290>
    2070:	ad7fffc4 	addi	r21,r21,-1
    2074:	003f2506 	br	1d0c <__udivdi3+0x2e0>
    2078:	157fb92e 	bgeu	r2,r21,1f60 <__udivdi3+0x534>
    207c:	297fffc4 	addi	r5,r5,-1
    2080:	14c5883a 	add	r2,r2,r19
    2084:	d9400215 	stw	r5,8(sp)
    2088:	003fb506 	br	1f60 <__udivdi3+0x534>
    208c:	843fffc4 	addi	r16,r16,-1
    2090:	14c5883a 	add	r2,r2,r19
    2094:	003ea106 	br	1b1c <__udivdi3+0xf0>

00002098 <udivmodsi4>:
    2098:	29001b2e 	bgeu	r5,r4,2108 <udivmodsi4+0x70>
    209c:	28001a16 	blt	r5,zero,2108 <udivmodsi4+0x70>
    20a0:	00800044 	movi	r2,1
    20a4:	0007883a 	mov	r3,zero
    20a8:	01c007c4 	movi	r7,31
    20ac:	00000306 	br	20bc <udivmodsi4+0x24>
    20b0:	19c01326 	beq	r3,r7,2100 <udivmodsi4+0x68>
    20b4:	18c00044 	addi	r3,r3,1
    20b8:	28000416 	blt	r5,zero,20cc <udivmodsi4+0x34>
    20bc:	294b883a 	add	r5,r5,r5
    20c0:	1085883a 	add	r2,r2,r2
    20c4:	293ffa36 	bltu	r5,r4,20b0 <udivmodsi4+0x18>
    20c8:	10000d26 	beq	r2,zero,2100 <udivmodsi4+0x68>
    20cc:	0007883a 	mov	r3,zero
    20d0:	21400236 	bltu	r4,r5,20dc <udivmodsi4+0x44>
    20d4:	2149c83a 	sub	r4,r4,r5
    20d8:	1886b03a 	or	r3,r3,r2
    20dc:	1004d07a 	srli	r2,r2,1
    20e0:	280ad07a 	srli	r5,r5,1
    20e4:	103ffa1e 	bne	r2,zero,20d0 <udivmodsi4+0x38>
    20e8:	30000226 	beq	r6,zero,20f4 <udivmodsi4+0x5c>
    20ec:	2005883a 	mov	r2,r4
    20f0:	f800283a 	ret
    20f4:	1809883a 	mov	r4,r3
    20f8:	2005883a 	mov	r2,r4
    20fc:	f800283a 	ret
    2100:	0007883a 	mov	r3,zero
    2104:	003ff806 	br	20e8 <udivmodsi4+0x50>
    2108:	00800044 	movi	r2,1
    210c:	0007883a 	mov	r3,zero
    2110:	003fef06 	br	20d0 <udivmodsi4+0x38>

00002114 <__divsi3>:
    2114:	defffe04 	addi	sp,sp,-8
    2118:	dc000015 	stw	r16,0(sp)
    211c:	dfc00115 	stw	ra,4(sp)
    2120:	0021883a 	mov	r16,zero
    2124:	20000c16 	blt	r4,zero,2158 <__divsi3+0x44>
    2128:	000d883a 	mov	r6,zero
    212c:	28000e16 	blt	r5,zero,2168 <__divsi3+0x54>
    2130:	00020980 	call	2098 <udivmodsi4>
    2134:	1007883a 	mov	r3,r2
    2138:	8005003a 	cmpeq	r2,r16,zero
    213c:	1000011e 	bne	r2,zero,2144 <__divsi3+0x30>
    2140:	00c7c83a 	sub	r3,zero,r3
    2144:	1805883a 	mov	r2,r3
    2148:	dfc00117 	ldw	ra,4(sp)
    214c:	dc000017 	ldw	r16,0(sp)
    2150:	dec00204 	addi	sp,sp,8
    2154:	f800283a 	ret
    2158:	0109c83a 	sub	r4,zero,r4
    215c:	04000044 	movi	r16,1
    2160:	000d883a 	mov	r6,zero
    2164:	283ff20e 	bge	r5,zero,2130 <__divsi3+0x1c>
    2168:	014bc83a 	sub	r5,zero,r5
    216c:	8021003a 	cmpeq	r16,r16,zero
    2170:	003fef06 	br	2130 <__divsi3+0x1c>

00002174 <__modsi3>:
    2174:	deffff04 	addi	sp,sp,-4
    2178:	dfc00015 	stw	ra,0(sp)
    217c:	01800044 	movi	r6,1
    2180:	2807883a 	mov	r3,r5
    2184:	20000416 	blt	r4,zero,2198 <__modsi3+0x24>
    2188:	28000c16 	blt	r5,zero,21bc <__modsi3+0x48>
    218c:	dfc00017 	ldw	ra,0(sp)
    2190:	dec00104 	addi	sp,sp,4
    2194:	00020981 	jmpi	2098 <udivmodsi4>
    2198:	0109c83a 	sub	r4,zero,r4
    219c:	28000b16 	blt	r5,zero,21cc <__modsi3+0x58>
    21a0:	180b883a 	mov	r5,r3
    21a4:	01800044 	movi	r6,1
    21a8:	00020980 	call	2098 <udivmodsi4>
    21ac:	0085c83a 	sub	r2,zero,r2
    21b0:	dfc00017 	ldw	ra,0(sp)
    21b4:	dec00104 	addi	sp,sp,4
    21b8:	f800283a 	ret
    21bc:	014bc83a 	sub	r5,zero,r5
    21c0:	dfc00017 	ldw	ra,0(sp)
    21c4:	dec00104 	addi	sp,sp,4
    21c8:	00020981 	jmpi	2098 <udivmodsi4>
    21cc:	0147c83a 	sub	r3,zero,r5
    21d0:	003ff306 	br	21a0 <__modsi3+0x2c>

000021d4 <__udivsi3>:
    21d4:	000d883a 	mov	r6,zero
    21d8:	00020981 	jmpi	2098 <udivmodsi4>

000021dc <__umodsi3>:
    21dc:	01800044 	movi	r6,1
    21e0:	00020981 	jmpi	2098 <udivmodsi4>

000021e4 <__mulsi3>:
    21e4:	20000a26 	beq	r4,zero,2210 <__mulsi3+0x2c>
    21e8:	0007883a 	mov	r3,zero
    21ec:	2080004c 	andi	r2,r4,1
    21f0:	1005003a 	cmpeq	r2,r2,zero
    21f4:	2008d07a 	srli	r4,r4,1
    21f8:	1000011e 	bne	r2,zero,2200 <__mulsi3+0x1c>
    21fc:	1947883a 	add	r3,r3,r5
    2200:	294b883a 	add	r5,r5,r5
    2204:	203ff91e 	bne	r4,zero,21ec <__mulsi3+0x8>
    2208:	1805883a 	mov	r2,r3
    220c:	f800283a 	ret
    2210:	0007883a 	mov	r3,zero
    2214:	1805883a 	mov	r2,r3
    2218:	f800283a 	ret

0000221c <printf>:
    221c:	defffb04 	addi	sp,sp,-20
    2220:	dfc00115 	stw	ra,4(sp)
    2224:	d9400215 	stw	r5,8(sp)
    2228:	d9800315 	stw	r6,12(sp)
    222c:	d9c00415 	stw	r7,16(sp)
    2230:	00800034 	movhi	r2,0
    2234:	108d6904 	addi	r2,r2,13732
    2238:	11400017 	ldw	r5,0(r2)
    223c:	d8800204 	addi	r2,sp,8
    2240:	d8800015 	stw	r2,0(sp)
    2244:	29c00217 	ldw	r7,8(r5)
    2248:	100d883a 	mov	r6,r2
    224c:	00800034 	movhi	r2,0
    2250:	108aae04 	addi	r2,r2,10936
    2254:	200b883a 	mov	r5,r4
    2258:	38800115 	stw	r2,4(r7)
    225c:	3809883a 	mov	r4,r7
    2260:	0002a940 	call	2a94 <__vfprintf_internal>
    2264:	dfc00117 	ldw	ra,4(sp)
    2268:	dec00504 	addi	sp,sp,20
    226c:	f800283a 	ret

00002270 <_printf_r>:
    2270:	defffc04 	addi	sp,sp,-16
    2274:	dfc00115 	stw	ra,4(sp)
    2278:	d9800215 	stw	r6,8(sp)
    227c:	d9c00315 	stw	r7,12(sp)
    2280:	22000217 	ldw	r8,8(r4)
    2284:	d8800204 	addi	r2,sp,8
    2288:	d8800015 	stw	r2,0(sp)
    228c:	100f883a 	mov	r7,r2
    2290:	00800034 	movhi	r2,0
    2294:	108aae04 	addi	r2,r2,10936
    2298:	280d883a 	mov	r6,r5
    229c:	40800115 	stw	r2,4(r8)
    22a0:	400b883a 	mov	r5,r8
    22a4:	00023f80 	call	23f8 <___vfprintf_internal_r>
    22a8:	dfc00117 	ldw	ra,4(sp)
    22ac:	dec00404 	addi	sp,sp,16
    22b0:	f800283a 	ret

000022b4 <_puts_r>:
    22b4:	defffd04 	addi	sp,sp,-12
    22b8:	dc000015 	stw	r16,0(sp)
    22bc:	2021883a 	mov	r16,r4
    22c0:	2809883a 	mov	r4,r5
    22c4:	dfc00215 	stw	ra,8(sp)
    22c8:	dc400115 	stw	r17,4(sp)
    22cc:	2823883a 	mov	r17,r5
    22d0:	00023580 	call	2358 <strlen>
    22d4:	80c00217 	ldw	r3,8(r16)
    22d8:	02000034 	movhi	r8,0
    22dc:	420aae04 	addi	r8,r8,10936
    22e0:	880d883a 	mov	r6,r17
    22e4:	100f883a 	mov	r7,r2
    22e8:	8009883a 	mov	r4,r16
    22ec:	180b883a 	mov	r5,r3
    22f0:	1a000115 	stw	r8,4(r3)
    22f4:	403ee83a 	callr	r8
    22f8:	047fffc4 	movi	r17,-1
    22fc:	8009883a 	mov	r4,r16
    2300:	01800034 	movhi	r6,0
    2304:	318c6204 	addi	r6,r6,12680
    2308:	01c00044 	movi	r7,1
    230c:	1440071e 	bne	r2,r17,232c <_puts_r+0x78>
    2310:	00ffffc4 	movi	r3,-1
    2314:	1805883a 	mov	r2,r3
    2318:	dfc00217 	ldw	ra,8(sp)
    231c:	dc400117 	ldw	r17,4(sp)
    2320:	dc000017 	ldw	r16,0(sp)
    2324:	dec00304 	addi	sp,sp,12
    2328:	f800283a 	ret
    232c:	81400217 	ldw	r5,8(r16)
    2330:	28c00117 	ldw	r3,4(r5)
    2334:	183ee83a 	callr	r3
    2338:	0007883a 	mov	r3,zero
    233c:	147ff51e 	bne	r2,r17,2314 <_puts_r+0x60>
    2340:	003ff306 	br	2310 <_puts_r+0x5c>

00002344 <puts>:
    2344:	00800034 	movhi	r2,0
    2348:	108d6904 	addi	r2,r2,13732
    234c:	200b883a 	mov	r5,r4
    2350:	11000017 	ldw	r4,0(r2)
    2354:	00022b41 	jmpi	22b4 <_puts_r>

00002358 <strlen>:
    2358:	20800007 	ldb	r2,0(r4)
    235c:	10000526 	beq	r2,zero,2374 <strlen+0x1c>
    2360:	2007883a 	mov	r3,r4
    2364:	18c00044 	addi	r3,r3,1
    2368:	18800007 	ldb	r2,0(r3)
    236c:	103ffd1e 	bne	r2,zero,2364 <strlen+0xc>
    2370:	1905c83a 	sub	r2,r3,r4
    2374:	f800283a 	ret

00002378 <print_repeat>:
    2378:	defffb04 	addi	sp,sp,-20
    237c:	dc800315 	stw	r18,12(sp)
    2380:	dc400215 	stw	r17,8(sp)
    2384:	dc000115 	stw	r16,4(sp)
    2388:	dfc00415 	stw	ra,16(sp)
    238c:	2025883a 	mov	r18,r4
    2390:	2823883a 	mov	r17,r5
    2394:	3821883a 	mov	r16,r7
    2398:	d9800005 	stb	r6,0(sp)
    239c:	9009883a 	mov	r4,r18
    23a0:	880b883a 	mov	r5,r17
    23a4:	d80d883a 	mov	r6,sp
    23a8:	01c00044 	movi	r7,1
    23ac:	04000b0e 	bge	zero,r16,23dc <print_repeat+0x64>
    23b0:	88c00117 	ldw	r3,4(r17)
    23b4:	843fffc4 	addi	r16,r16,-1
    23b8:	183ee83a 	callr	r3
    23bc:	103ff726 	beq	r2,zero,239c <print_repeat+0x24>
    23c0:	00bfffc4 	movi	r2,-1
    23c4:	dfc00417 	ldw	ra,16(sp)
    23c8:	dc800317 	ldw	r18,12(sp)
    23cc:	dc400217 	ldw	r17,8(sp)
    23d0:	dc000117 	ldw	r16,4(sp)
    23d4:	dec00504 	addi	sp,sp,20
    23d8:	f800283a 	ret
    23dc:	0005883a 	mov	r2,zero
    23e0:	dfc00417 	ldw	ra,16(sp)
    23e4:	dc800317 	ldw	r18,12(sp)
    23e8:	dc400217 	ldw	r17,8(sp)
    23ec:	dc000117 	ldw	r16,4(sp)
    23f0:	dec00504 	addi	sp,sp,20
    23f4:	f800283a 	ret

000023f8 <___vfprintf_internal_r>:
    23f8:	deffe304 	addi	sp,sp,-116
    23fc:	df001b15 	stw	fp,108(sp)
    2400:	ddc01a15 	stw	r23,104(sp)
    2404:	dd001715 	stw	r20,92(sp)
    2408:	dc801515 	stw	r18,84(sp)
    240c:	dc001315 	stw	r16,76(sp)
    2410:	dfc01c15 	stw	ra,112(sp)
    2414:	dd801915 	stw	r22,100(sp)
    2418:	dd401815 	stw	r21,96(sp)
    241c:	dcc01615 	stw	r19,88(sp)
    2420:	dc401415 	stw	r17,80(sp)
    2424:	d9001015 	stw	r4,64(sp)
    2428:	2829883a 	mov	r20,r5
    242c:	d9c01115 	stw	r7,68(sp)
    2430:	3025883a 	mov	r18,r6
    2434:	0021883a 	mov	r16,zero
    2438:	d8000f15 	stw	zero,60(sp)
    243c:	d8000e15 	stw	zero,56(sp)
    2440:	0039883a 	mov	fp,zero
    2444:	d8000915 	stw	zero,36(sp)
    2448:	d8000d15 	stw	zero,52(sp)
    244c:	d8000c15 	stw	zero,48(sp)
    2450:	d8000b15 	stw	zero,44(sp)
    2454:	002f883a 	mov	r23,zero
    2458:	91400003 	ldbu	r5,0(r18)
    245c:	01c00044 	movi	r7,1
    2460:	94800044 	addi	r18,r18,1
    2464:	29003fcc 	andi	r4,r5,255
    2468:	2100201c 	xori	r4,r4,128
    246c:	213fe004 	addi	r4,r4,-128
    2470:	20001526 	beq	r4,zero,24c8 <___vfprintf_internal_r+0xd0>
    2474:	81c03526 	beq	r16,r7,254c <___vfprintf_internal_r+0x154>
    2478:	3c002016 	blt	r7,r16,24fc <___vfprintf_internal_r+0x104>
    247c:	803ff61e 	bne	r16,zero,2458 <___vfprintf_internal_r+0x60>
    2480:	00800944 	movi	r2,37
    2484:	2081501e 	bne	r4,r2,29c8 <___vfprintf_internal_r+0x5d0>
    2488:	073fffc4 	movi	fp,-1
    248c:	00800284 	movi	r2,10
    2490:	d9c00c15 	stw	r7,48(sp)
    2494:	d8000f15 	stw	zero,60(sp)
    2498:	d8000e15 	stw	zero,56(sp)
    249c:	df000915 	stw	fp,36(sp)
    24a0:	d8800d15 	stw	r2,52(sp)
    24a4:	d8000b15 	stw	zero,44(sp)
    24a8:	91400003 	ldbu	r5,0(r18)
    24ac:	3821883a 	mov	r16,r7
    24b0:	94800044 	addi	r18,r18,1
    24b4:	29003fcc 	andi	r4,r5,255
    24b8:	2100201c 	xori	r4,r4,128
    24bc:	213fe004 	addi	r4,r4,-128
    24c0:	01c00044 	movi	r7,1
    24c4:	203feb1e 	bne	r4,zero,2474 <___vfprintf_internal_r+0x7c>
    24c8:	b805883a 	mov	r2,r23
    24cc:	dfc01c17 	ldw	ra,112(sp)
    24d0:	df001b17 	ldw	fp,108(sp)
    24d4:	ddc01a17 	ldw	r23,104(sp)
    24d8:	dd801917 	ldw	r22,100(sp)
    24dc:	dd401817 	ldw	r21,96(sp)
    24e0:	dd001717 	ldw	r20,92(sp)
    24e4:	dcc01617 	ldw	r19,88(sp)
    24e8:	dc801517 	ldw	r18,84(sp)
    24ec:	dc401417 	ldw	r17,80(sp)
    24f0:	dc001317 	ldw	r16,76(sp)
    24f4:	dec01d04 	addi	sp,sp,116
    24f8:	f800283a 	ret
    24fc:	00800084 	movi	r2,2
    2500:	80801726 	beq	r16,r2,2560 <___vfprintf_internal_r+0x168>
    2504:	008000c4 	movi	r2,3
    2508:	80bfd31e 	bne	r16,r2,2458 <___vfprintf_internal_r+0x60>
    250c:	2c7ff404 	addi	r17,r5,-48
    2510:	88c03fcc 	andi	r3,r17,255
    2514:	00800244 	movi	r2,9
    2518:	10c02136 	bltu	r2,r3,25a0 <___vfprintf_internal_r+0x1a8>
    251c:	d8c00917 	ldw	r3,36(sp)
    2520:	18012716 	blt	r3,zero,29c0 <___vfprintf_internal_r+0x5c8>
    2524:	d9000917 	ldw	r4,36(sp)
    2528:	01400284 	movi	r5,10
    252c:	00021e40 	call	21e4 <__mulsi3>
    2530:	1007883a 	mov	r3,r2
    2534:	88803fcc 	andi	r2,r17,255
    2538:	1080201c 	xori	r2,r2,128
    253c:	10bfe004 	addi	r2,r2,-128
    2540:	1887883a 	add	r3,r3,r2
    2544:	d8c00915 	stw	r3,36(sp)
    2548:	003fc306 	br	2458 <___vfprintf_internal_r+0x60>
    254c:	00800c04 	movi	r2,48
    2550:	2080b326 	beq	r4,r2,2820 <___vfprintf_internal_r+0x428>
    2554:	00800944 	movi	r2,37
    2558:	20812726 	beq	r4,r2,29f8 <___vfprintf_internal_r+0x600>
    255c:	04000084 	movi	r16,2
    2560:	2c7ff404 	addi	r17,r5,-48
    2564:	88c03fcc 	andi	r3,r17,255
    2568:	00800244 	movi	r2,9
    256c:	10c00a36 	bltu	r2,r3,2598 <___vfprintf_internal_r+0x1a0>
    2570:	e000b416 	blt	fp,zero,2844 <___vfprintf_internal_r+0x44c>
    2574:	e009883a 	mov	r4,fp
    2578:	01400284 	movi	r5,10
    257c:	00021e40 	call	21e4 <__mulsi3>
    2580:	1007883a 	mov	r3,r2
    2584:	88803fcc 	andi	r2,r17,255
    2588:	1080201c 	xori	r2,r2,128
    258c:	10bfe004 	addi	r2,r2,-128
    2590:	18b9883a 	add	fp,r3,r2
    2594:	003fb006 	br	2458 <___vfprintf_internal_r+0x60>
    2598:	00800b84 	movi	r2,46
    259c:	2080a326 	beq	r4,r2,282c <___vfprintf_internal_r+0x434>
    25a0:	00801b04 	movi	r2,108
    25a4:	2080a326 	beq	r4,r2,2834 <___vfprintf_internal_r+0x43c>
    25a8:	d8c00917 	ldw	r3,36(sp)
    25ac:	1800a716 	blt	r3,zero,284c <___vfprintf_internal_r+0x454>
    25b0:	d8000f15 	stw	zero,60(sp)
    25b4:	28bfea04 	addi	r2,r5,-88
    25b8:	10803fcc 	andi	r2,r2,255
    25bc:	00c00804 	movi	r3,32
    25c0:	18802836 	bltu	r3,r2,2664 <___vfprintf_internal_r+0x26c>
    25c4:	1085883a 	add	r2,r2,r2
    25c8:	1085883a 	add	r2,r2,r2
    25cc:	00c00034 	movhi	r3,0
    25d0:	18c97804 	addi	r3,r3,9696
    25d4:	10c5883a 	add	r2,r2,r3
    25d8:	11000017 	ldw	r4,0(r2)
    25dc:	2000683a 	jmp	r4
    25e0:	0000266c 	andhi	zero,zero,153
    25e4:	00002664 	muli	zero,zero,153
    25e8:	00002664 	muli	zero,zero,153
    25ec:	00002664 	muli	zero,zero,153
    25f0:	00002664 	muli	zero,zero,153
    25f4:	00002664 	muli	zero,zero,153
    25f8:	00002664 	muli	zero,zero,153
    25fc:	00002664 	muli	zero,zero,153
    2600:	00002664 	muli	zero,zero,153
    2604:	00002664 	muli	zero,zero,153
    2608:	00002664 	muli	zero,zero,153
    260c:	00002898 	cmpnei	zero,zero,162
    2610:	00002680 	call	268 <main+0x54>
    2614:	00002664 	muli	zero,zero,153
    2618:	00002664 	muli	zero,zero,153
    261c:	00002664 	muli	zero,zero,153
    2620:	00002664 	muli	zero,zero,153
    2624:	00002680 	call	268 <main+0x54>
    2628:	00002664 	muli	zero,zero,153
    262c:	00002664 	muli	zero,zero,153
    2630:	00002664 	muli	zero,zero,153
    2634:	00002664 	muli	zero,zero,153
    2638:	00002664 	muli	zero,zero,153
    263c:	00002900 	call	290 <main+0x7c>
    2640:	00002664 	muli	zero,zero,153
    2644:	00002664 	muli	zero,zero,153
    2648:	00002664 	muli	zero,zero,153
    264c:	00002910 	cmplti	zero,zero,164
    2650:	00002664 	muli	zero,zero,153
    2654:	000027e4 	muli	zero,zero,159
    2658:	00002664 	muli	zero,zero,153
    265c:	00002664 	muli	zero,zero,153
    2660:	000027dc 	xori	zero,zero,159
    2664:	0021883a 	mov	r16,zero
    2668:	003f7b06 	br	2458 <___vfprintf_internal_r+0x60>
    266c:	00c00404 	movi	r3,16
    2670:	00800044 	movi	r2,1
    2674:	d8c00d15 	stw	r3,52(sp)
    2678:	d8000c15 	stw	zero,48(sp)
    267c:	d8800b15 	stw	r2,44(sp)
    2680:	d8c00e17 	ldw	r3,56(sp)
    2684:	1805003a 	cmpeq	r2,r3,zero
    2688:	10005a1e 	bne	r2,zero,27f4 <___vfprintf_internal_r+0x3fc>
    268c:	d8800c17 	ldw	r2,48(sp)
    2690:	1000781e 	bne	r2,zero,2874 <___vfprintf_internal_r+0x47c>
    2694:	d8801117 	ldw	r2,68(sp)
    2698:	d8000a15 	stw	zero,40(sp)
    269c:	14400017 	ldw	r17,0(r2)
    26a0:	11c00104 	addi	r7,r2,4
    26a4:	d9c01115 	stw	r7,68(sp)
    26a8:	88005a26 	beq	r17,zero,2814 <___vfprintf_internal_r+0x41c>
    26ac:	d8c00b17 	ldw	r3,44(sp)
    26b0:	dcc00044 	addi	r19,sp,1
    26b4:	05800244 	movi	r22,9
    26b8:	182b003a 	cmpeq	r21,r3,zero
    26bc:	dcc01215 	stw	r19,72(sp)
    26c0:	00000506 	br	26d8 <___vfprintf_internal_r+0x2e0>
    26c4:	21000c04 	addi	r4,r4,48
    26c8:	99000005 	stb	r4,0(r19)
    26cc:	9cc00044 	addi	r19,r19,1
    26d0:	80000f26 	beq	r16,zero,2710 <___vfprintf_internal_r+0x318>
    26d4:	8023883a 	mov	r17,r16
    26d8:	d9400d17 	ldw	r5,52(sp)
    26dc:	8809883a 	mov	r4,r17
    26e0:	00021d40 	call	21d4 <__udivsi3>
    26e4:	d9000d17 	ldw	r4,52(sp)
    26e8:	100b883a 	mov	r5,r2
    26ec:	1021883a 	mov	r16,r2
    26f0:	00021e40 	call	21e4 <__mulsi3>
    26f4:	8889c83a 	sub	r4,r17,r2
    26f8:	b13ff20e 	bge	r22,r4,26c4 <___vfprintf_internal_r+0x2cc>
    26fc:	a8009f1e 	bne	r21,zero,297c <___vfprintf_internal_r+0x584>
    2700:	21000dc4 	addi	r4,r4,55
    2704:	99000005 	stb	r4,0(r19)
    2708:	9cc00044 	addi	r19,r19,1
    270c:	803ff11e 	bne	r16,zero,26d4 <___vfprintf_internal_r+0x2dc>
    2710:	d8801217 	ldw	r2,72(sp)
    2714:	98a3c83a 	sub	r17,r19,r2
    2718:	d8c00917 	ldw	r3,36(sp)
    271c:	1c4bc83a 	sub	r5,r3,r17
    2720:	0140130e 	bge	zero,r5,2770 <___vfprintf_internal_r+0x378>
    2724:	d8c00044 	addi	r3,sp,1
    2728:	18800804 	addi	r2,r3,32
    272c:	9880102e 	bgeu	r19,r2,2770 <___vfprintf_internal_r+0x378>
    2730:	00800c04 	movi	r2,48
    2734:	28ffffc4 	addi	r3,r5,-1
    2738:	98800005 	stb	r2,0(r19)
    273c:	99000044 	addi	r4,r19,1
    2740:	00c0080e 	bge	zero,r3,2764 <___vfprintf_internal_r+0x36c>
    2744:	d8c00044 	addi	r3,sp,1
    2748:	18800804 	addi	r2,r3,32
    274c:	2080052e 	bgeu	r4,r2,2764 <___vfprintf_internal_r+0x36c>
    2750:	00800c04 	movi	r2,48
    2754:	20800005 	stb	r2,0(r4)
    2758:	21000044 	addi	r4,r4,1
    275c:	9945883a 	add	r2,r19,r5
    2760:	20bff81e 	bne	r4,r2,2744 <___vfprintf_internal_r+0x34c>
    2764:	d8801217 	ldw	r2,72(sp)
    2768:	2027883a 	mov	r19,r4
    276c:	20a3c83a 	sub	r17,r4,r2
    2770:	d8c00a17 	ldw	r3,40(sp)
    2774:	1c45883a 	add	r2,r3,r17
    2778:	e0a1c83a 	sub	r16,fp,r2
    277c:	d8800f17 	ldw	r2,60(sp)
    2780:	10008026 	beq	r2,zero,2984 <___vfprintf_internal_r+0x58c>
    2784:	1805003a 	cmpeq	r2,r3,zero
    2788:	1000ae26 	beq	r2,zero,2a44 <___vfprintf_internal_r+0x64c>
    278c:	0400a516 	blt	zero,r16,2a24 <___vfprintf_internal_r+0x62c>
    2790:	b805883a 	mov	r2,r23
    2794:	0440950e 	bge	zero,r17,29ec <___vfprintf_internal_r+0x5f4>
    2798:	102f883a 	mov	r23,r2
    279c:	1461883a 	add	r16,r2,r17
    27a0:	00000206 	br	27ac <___vfprintf_internal_r+0x3b4>
    27a4:	bdc00044 	addi	r23,r23,1
    27a8:	85ffae26 	beq	r16,r23,2664 <___vfprintf_internal_r+0x26c>
    27ac:	9cffffc4 	addi	r19,r19,-1
    27b0:	98800003 	ldbu	r2,0(r19)
    27b4:	a0c00117 	ldw	r3,4(r20)
    27b8:	d9001017 	ldw	r4,64(sp)
    27bc:	d8800005 	stb	r2,0(sp)
    27c0:	a00b883a 	mov	r5,r20
    27c4:	d80d883a 	mov	r6,sp
    27c8:	01c00044 	movi	r7,1
    27cc:	183ee83a 	callr	r3
    27d0:	103ff426 	beq	r2,zero,27a4 <___vfprintf_internal_r+0x3ac>
    27d4:	05ffffc4 	movi	r23,-1
    27d8:	003f3b06 	br	24c8 <___vfprintf_internal_r+0xd0>
    27dc:	00c00404 	movi	r3,16
    27e0:	d8c00d15 	stw	r3,52(sp)
    27e4:	d8000c15 	stw	zero,48(sp)
    27e8:	d8c00e17 	ldw	r3,56(sp)
    27ec:	1805003a 	cmpeq	r2,r3,zero
    27f0:	103fa626 	beq	r2,zero,268c <___vfprintf_internal_r+0x294>
    27f4:	d8c00c17 	ldw	r3,48(sp)
    27f8:	1800171e 	bne	r3,zero,2858 <___vfprintf_internal_r+0x460>
    27fc:	d8c01117 	ldw	r3,68(sp)
    2800:	d8000a15 	stw	zero,40(sp)
    2804:	1c400017 	ldw	r17,0(r3)
    2808:	19c00104 	addi	r7,r3,4
    280c:	d9c01115 	stw	r7,68(sp)
    2810:	883fa61e 	bne	r17,zero,26ac <___vfprintf_internal_r+0x2b4>
    2814:	dcc00044 	addi	r19,sp,1
    2818:	dcc01215 	stw	r19,72(sp)
    281c:	003fbe06 	br	2718 <___vfprintf_internal_r+0x320>
    2820:	04000084 	movi	r16,2
    2824:	d9c00f15 	stw	r7,60(sp)
    2828:	003f0b06 	br	2458 <___vfprintf_internal_r+0x60>
    282c:	040000c4 	movi	r16,3
    2830:	003f0906 	br	2458 <___vfprintf_internal_r+0x60>
    2834:	00800044 	movi	r2,1
    2838:	040000c4 	movi	r16,3
    283c:	d8800e15 	stw	r2,56(sp)
    2840:	003f0506 	br	2458 <___vfprintf_internal_r+0x60>
    2844:	0007883a 	mov	r3,zero
    2848:	003f4e06 	br	2584 <___vfprintf_internal_r+0x18c>
    284c:	00800044 	movi	r2,1
    2850:	d8800915 	stw	r2,36(sp)
    2854:	003f5706 	br	25b4 <___vfprintf_internal_r+0x1bc>
    2858:	d8801117 	ldw	r2,68(sp)
    285c:	14400017 	ldw	r17,0(r2)
    2860:	10800104 	addi	r2,r2,4
    2864:	d8801115 	stw	r2,68(sp)
    2868:	88000716 	blt	r17,zero,2888 <___vfprintf_internal_r+0x490>
    286c:	d8000a15 	stw	zero,40(sp)
    2870:	003f8d06 	br	26a8 <___vfprintf_internal_r+0x2b0>
    2874:	d8c01117 	ldw	r3,68(sp)
    2878:	1c400017 	ldw	r17,0(r3)
    287c:	18c00104 	addi	r3,r3,4
    2880:	d8c01115 	stw	r3,68(sp)
    2884:	883ff90e 	bge	r17,zero,286c <___vfprintf_internal_r+0x474>
    2888:	00800044 	movi	r2,1
    288c:	0463c83a 	sub	r17,zero,r17
    2890:	d8800a15 	stw	r2,40(sp)
    2894:	003f8406 	br	26a8 <___vfprintf_internal_r+0x2b0>
    2898:	04000044 	movi	r16,1
    289c:	8700080e 	bge	r16,fp,28c0 <___vfprintf_internal_r+0x4c8>
    28a0:	d9001017 	ldw	r4,64(sp)
    28a4:	a00b883a 	mov	r5,r20
    28a8:	01800804 	movi	r6,32
    28ac:	e1ffffc4 	addi	r7,fp,-1
    28b0:	00023780 	call	2378 <print_repeat>
    28b4:	103fc71e 	bne	r2,zero,27d4 <___vfprintf_internal_r+0x3dc>
    28b8:	e5c5883a 	add	r2,fp,r23
    28bc:	15ffffc4 	addi	r23,r2,-1
    28c0:	d8c01117 	ldw	r3,68(sp)
    28c4:	d9001017 	ldw	r4,64(sp)
    28c8:	800f883a 	mov	r7,r16
    28cc:	18800017 	ldw	r2,0(r3)
    28d0:	a0c00117 	ldw	r3,4(r20)
    28d4:	a00b883a 	mov	r5,r20
    28d8:	d8800005 	stb	r2,0(sp)
    28dc:	d80d883a 	mov	r6,sp
    28e0:	183ee83a 	callr	r3
    28e4:	103fbb1e 	bne	r2,zero,27d4 <___vfprintf_internal_r+0x3dc>
    28e8:	d8801117 	ldw	r2,68(sp)
    28ec:	bdc00044 	addi	r23,r23,1
    28f0:	0021883a 	mov	r16,zero
    28f4:	10800104 	addi	r2,r2,4
    28f8:	d8801115 	stw	r2,68(sp)
    28fc:	003ed606 	br	2458 <___vfprintf_internal_r+0x60>
    2900:	00800204 	movi	r2,8
    2904:	d8800d15 	stw	r2,52(sp)
    2908:	d8000c15 	stw	zero,48(sp)
    290c:	003fb606 	br	27e8 <___vfprintf_internal_r+0x3f0>
    2910:	d8c01117 	ldw	r3,68(sp)
    2914:	1cc00017 	ldw	r19,0(r3)
    2918:	9809883a 	mov	r4,r19
    291c:	00023580 	call	2358 <strlen>
    2920:	e0a1c83a 	sub	r16,fp,r2
    2924:	1023883a 	mov	r17,r2
    2928:	0400070e 	bge	zero,r16,2948 <___vfprintf_internal_r+0x550>
    292c:	d9001017 	ldw	r4,64(sp)
    2930:	a00b883a 	mov	r5,r20
    2934:	01800804 	movi	r6,32
    2938:	800f883a 	mov	r7,r16
    293c:	00023780 	call	2378 <print_repeat>
    2940:	103fa41e 	bne	r2,zero,27d4 <___vfprintf_internal_r+0x3dc>
    2944:	bc2f883a 	add	r23,r23,r16
    2948:	a0c00117 	ldw	r3,4(r20)
    294c:	d9001017 	ldw	r4,64(sp)
    2950:	980d883a 	mov	r6,r19
    2954:	a00b883a 	mov	r5,r20
    2958:	880f883a 	mov	r7,r17
    295c:	183ee83a 	callr	r3
    2960:	103f9c1e 	bne	r2,zero,27d4 <___vfprintf_internal_r+0x3dc>
    2964:	d8801117 	ldw	r2,68(sp)
    2968:	bc6f883a 	add	r23,r23,r17
    296c:	0021883a 	mov	r16,zero
    2970:	10800104 	addi	r2,r2,4
    2974:	d8801115 	stw	r2,68(sp)
    2978:	003eb706 	br	2458 <___vfprintf_internal_r+0x60>
    297c:	210015c4 	addi	r4,r4,87
    2980:	003f5106 	br	26c8 <___vfprintf_internal_r+0x2d0>
    2984:	04003b16 	blt	zero,r16,2a74 <___vfprintf_internal_r+0x67c>
    2988:	d8c00a17 	ldw	r3,40(sp)
    298c:	1805003a 	cmpeq	r2,r3,zero
    2990:	103f7f1e 	bne	r2,zero,2790 <___vfprintf_internal_r+0x398>
    2994:	a0c00117 	ldw	r3,4(r20)
    2998:	d9001017 	ldw	r4,64(sp)
    299c:	00800b44 	movi	r2,45
    29a0:	d8800005 	stb	r2,0(sp)
    29a4:	a00b883a 	mov	r5,r20
    29a8:	d80d883a 	mov	r6,sp
    29ac:	01c00044 	movi	r7,1
    29b0:	183ee83a 	callr	r3
    29b4:	103f871e 	bne	r2,zero,27d4 <___vfprintf_internal_r+0x3dc>
    29b8:	b8800044 	addi	r2,r23,1
    29bc:	003f7506 	br	2794 <___vfprintf_internal_r+0x39c>
    29c0:	0007883a 	mov	r3,zero
    29c4:	003edb06 	br	2534 <___vfprintf_internal_r+0x13c>
    29c8:	a0c00117 	ldw	r3,4(r20)
    29cc:	d9001017 	ldw	r4,64(sp)
    29d0:	d9400005 	stb	r5,0(sp)
    29d4:	d80d883a 	mov	r6,sp
    29d8:	a00b883a 	mov	r5,r20
    29dc:	183ee83a 	callr	r3
    29e0:	103f7c1e 	bne	r2,zero,27d4 <___vfprintf_internal_r+0x3dc>
    29e4:	bdc00044 	addi	r23,r23,1
    29e8:	003e9b06 	br	2458 <___vfprintf_internal_r+0x60>
    29ec:	102f883a 	mov	r23,r2
    29f0:	0021883a 	mov	r16,zero
    29f4:	003e9806 	br	2458 <___vfprintf_internal_r+0x60>
    29f8:	a0c00117 	ldw	r3,4(r20)
    29fc:	d9000005 	stb	r4,0(sp)
    2a00:	d9001017 	ldw	r4,64(sp)
    2a04:	a00b883a 	mov	r5,r20
    2a08:	d80d883a 	mov	r6,sp
    2a0c:	800f883a 	mov	r7,r16
    2a10:	183ee83a 	callr	r3
    2a14:	103f6f1e 	bne	r2,zero,27d4 <___vfprintf_internal_r+0x3dc>
    2a18:	bc2f883a 	add	r23,r23,r16
    2a1c:	0021883a 	mov	r16,zero
    2a20:	003e8d06 	br	2458 <___vfprintf_internal_r+0x60>
    2a24:	d9001017 	ldw	r4,64(sp)
    2a28:	a00b883a 	mov	r5,r20
    2a2c:	01800c04 	movi	r6,48
    2a30:	800f883a 	mov	r7,r16
    2a34:	00023780 	call	2378 <print_repeat>
    2a38:	103f661e 	bne	r2,zero,27d4 <___vfprintf_internal_r+0x3dc>
    2a3c:	bc05883a 	add	r2,r23,r16
    2a40:	003f5406 	br	2794 <___vfprintf_internal_r+0x39c>
    2a44:	a0c00117 	ldw	r3,4(r20)
    2a48:	d9001017 	ldw	r4,64(sp)
    2a4c:	00800b44 	movi	r2,45
    2a50:	d8800005 	stb	r2,0(sp)
    2a54:	a00b883a 	mov	r5,r20
    2a58:	d80d883a 	mov	r6,sp
    2a5c:	01c00044 	movi	r7,1
    2a60:	183ee83a 	callr	r3
    2a64:	103f5b1e 	bne	r2,zero,27d4 <___vfprintf_internal_r+0x3dc>
    2a68:	bdc00044 	addi	r23,r23,1
    2a6c:	043f480e 	bge	zero,r16,2790 <___vfprintf_internal_r+0x398>
    2a70:	003fec06 	br	2a24 <___vfprintf_internal_r+0x62c>
    2a74:	d9001017 	ldw	r4,64(sp)
    2a78:	a00b883a 	mov	r5,r20
    2a7c:	01800804 	movi	r6,32
    2a80:	800f883a 	mov	r7,r16
    2a84:	00023780 	call	2378 <print_repeat>
    2a88:	103f521e 	bne	r2,zero,27d4 <___vfprintf_internal_r+0x3dc>
    2a8c:	bc2f883a 	add	r23,r23,r16
    2a90:	003fbd06 	br	2988 <___vfprintf_internal_r+0x590>

00002a94 <__vfprintf_internal>:
    2a94:	00800034 	movhi	r2,0
    2a98:	108d6904 	addi	r2,r2,13732
    2a9c:	2013883a 	mov	r9,r4
    2aa0:	11000017 	ldw	r4,0(r2)
    2aa4:	2805883a 	mov	r2,r5
    2aa8:	300f883a 	mov	r7,r6
    2aac:	480b883a 	mov	r5,r9
    2ab0:	100d883a 	mov	r6,r2
    2ab4:	00023f81 	jmpi	23f8 <___vfprintf_internal_r>

00002ab8 <__sfvwrite_small_dev>:
    2ab8:	2880000b 	ldhu	r2,0(r5)
    2abc:	defffa04 	addi	sp,sp,-24
    2ac0:	dcc00315 	stw	r19,12(sp)
    2ac4:	1080020c 	andi	r2,r2,8
    2ac8:	dc800215 	stw	r18,8(sp)
    2acc:	dc400115 	stw	r17,4(sp)
    2ad0:	dfc00515 	stw	ra,20(sp)
    2ad4:	dd000415 	stw	r20,16(sp)
    2ad8:	dc000015 	stw	r16,0(sp)
    2adc:	2825883a 	mov	r18,r5
    2ae0:	2027883a 	mov	r19,r4
    2ae4:	3023883a 	mov	r17,r6
    2ae8:	10002026 	beq	r2,zero,2b6c <__sfvwrite_small_dev+0xb4>
    2aec:	2940008f 	ldh	r5,2(r5)
    2af0:	28000f16 	blt	r5,zero,2b30 <__sfvwrite_small_dev+0x78>
    2af4:	01c01b0e 	bge	zero,r7,2b64 <__sfvwrite_small_dev+0xac>
    2af8:	3821883a 	mov	r16,r7
    2afc:	05010004 	movi	r20,1024
    2b00:	00000206 	br	2b0c <__sfvwrite_small_dev+0x54>
    2b04:	0400170e 	bge	zero,r16,2b64 <__sfvwrite_small_dev+0xac>
    2b08:	9140008f 	ldh	r5,2(r18)
    2b0c:	880d883a 	mov	r6,r17
    2b10:	9809883a 	mov	r4,r19
    2b14:	800f883a 	mov	r7,r16
    2b18:	a400010e 	bge	r20,r16,2b20 <__sfvwrite_small_dev+0x68>
    2b1c:	01c10004 	movi	r7,1024
    2b20:	0002b740 	call	2b74 <_write_r>
    2b24:	88a3883a 	add	r17,r17,r2
    2b28:	80a1c83a 	sub	r16,r16,r2
    2b2c:	00bff516 	blt	zero,r2,2b04 <__sfvwrite_small_dev+0x4c>
    2b30:	9080000b 	ldhu	r2,0(r18)
    2b34:	00ffffc4 	movi	r3,-1
    2b38:	10801014 	ori	r2,r2,64
    2b3c:	9080000d 	sth	r2,0(r18)
    2b40:	1805883a 	mov	r2,r3
    2b44:	dfc00517 	ldw	ra,20(sp)
    2b48:	dd000417 	ldw	r20,16(sp)
    2b4c:	dcc00317 	ldw	r19,12(sp)
    2b50:	dc800217 	ldw	r18,8(sp)
    2b54:	dc400117 	ldw	r17,4(sp)
    2b58:	dc000017 	ldw	r16,0(sp)
    2b5c:	dec00604 	addi	sp,sp,24
    2b60:	f800283a 	ret
    2b64:	0007883a 	mov	r3,zero
    2b68:	003ff506 	br	2b40 <__sfvwrite_small_dev+0x88>
    2b6c:	00ffffc4 	movi	r3,-1
    2b70:	003ff306 	br	2b40 <__sfvwrite_small_dev+0x88>

00002b74 <_write_r>:
    2b74:	defffd04 	addi	sp,sp,-12
    2b78:	dc000015 	stw	r16,0(sp)
    2b7c:	04000034 	movhi	r16,0
    2b80:	840daf04 	addi	r16,r16,14012
    2b84:	dc400115 	stw	r17,4(sp)
    2b88:	80000015 	stw	zero,0(r16)
    2b8c:	2023883a 	mov	r17,r4
    2b90:	2809883a 	mov	r4,r5
    2b94:	300b883a 	mov	r5,r6
    2b98:	380d883a 	mov	r6,r7
    2b9c:	dfc00215 	stw	ra,8(sp)
    2ba0:	0002e700 	call	2e70 <write>
    2ba4:	1007883a 	mov	r3,r2
    2ba8:	00bfffc4 	movi	r2,-1
    2bac:	18800626 	beq	r3,r2,2bc8 <_write_r+0x54>
    2bb0:	1805883a 	mov	r2,r3
    2bb4:	dfc00217 	ldw	ra,8(sp)
    2bb8:	dc400117 	ldw	r17,4(sp)
    2bbc:	dc000017 	ldw	r16,0(sp)
    2bc0:	dec00304 	addi	sp,sp,12
    2bc4:	f800283a 	ret
    2bc8:	80800017 	ldw	r2,0(r16)
    2bcc:	103ff826 	beq	r2,zero,2bb0 <_write_r+0x3c>
    2bd0:	88800015 	stw	r2,0(r17)
    2bd4:	1805883a 	mov	r2,r3
    2bd8:	dfc00217 	ldw	ra,8(sp)
    2bdc:	dc400117 	ldw	r17,4(sp)
    2be0:	dc000017 	ldw	r16,0(sp)
    2be4:	dec00304 	addi	sp,sp,12
    2be8:	f800283a 	ret

00002bec <alt_load_section>:

static void ALT_INLINE alt_load_section (alt_u32* from, 
                                         alt_u32* to, 
                                         alt_u32* end)
{
  if (to != from)
    2bec:	2900051e 	bne	r5,r4,2c04 <alt_load_section+0x18>
    2bf0:	f800283a 	ret
  {
    while( to != end )
    {
      *to++ = *from++;
    2bf4:	20800017 	ldw	r2,0(r4)
    2bf8:	21000104 	addi	r4,r4,4
    2bfc:	28800015 	stw	r2,0(r5)
    2c00:	29400104 	addi	r5,r5,4
                                         alt_u32* to, 
                                         alt_u32* end)
{
  if (to != from)
  {
    while( to != end )
    2c04:	29bffb1e 	bne	r5,r6,2bf4 <alt_load_section+0x8>
    2c08:	f800283a 	ret

00002c0c <alt_load>:
 * there is no bootloader, so this application is responsible for loading to
 * RAM any sections that are required.
 */  

void alt_load (void)
{
    2c0c:	deffff04 	addi	sp,sp,-4
  /* 
   * Copy the .rwdata section. 
   */

  alt_load_section (&__flash_rwdata_start, 
    2c10:	01000034 	movhi	r4,0
    2c14:	210d6e04 	addi	r4,r4,13752
    2c18:	01400034 	movhi	r5,0
    2c1c:	294d2d04 	addi	r5,r5,13492
    2c20:	01800034 	movhi	r6,0
    2c24:	318d6e04 	addi	r6,r6,13752
 * there is no bootloader, so this application is responsible for loading to
 * RAM any sections that are required.
 */  

void alt_load (void)
{
    2c28:	dfc00015 	stw	ra,0(sp)
  /* 
   * Copy the .rwdata section. 
   */

  alt_load_section (&__flash_rwdata_start, 
    2c2c:	0002bec0 	call	2bec <alt_load_section>

  /*
   * Copy the exception handler.
   */

  alt_load_section (&__flash_exceptions_start, 
    2c30:	01000034 	movhi	r4,0
    2c34:	21000804 	addi	r4,r4,32
    2c38:	01400034 	movhi	r5,0
    2c3c:	29400804 	addi	r5,r5,32
    2c40:	01800034 	movhi	r6,0
    2c44:	31800804 	addi	r6,r6,32
    2c48:	0002bec0 	call	2bec <alt_load_section>

  /*
   * Copy the .rodata section.
   */

  alt_load_section (&__flash_rodata_start, 
    2c4c:	01000034 	movhi	r4,0
    2c50:	210c0d04 	addi	r4,r4,12340
    2c54:	01400034 	movhi	r5,0
    2c58:	294c0d04 	addi	r5,r5,12340
    2c5c:	01800034 	movhi	r6,0
    2c60:	318d2d04 	addi	r6,r6,13492
    2c64:	0002bec0 	call	2bec <alt_load_section>
  
  /*
   * Now ensure that the caches are in synch.
   */
  
  alt_dcache_flush_all();
    2c68:	00030240 	call	3024 <alt_dcache_flush_all>
  alt_icache_flush_all();
}
    2c6c:	dfc00017 	ldw	ra,0(sp)
    2c70:	dec00104 	addi	sp,sp,4
  /*
   * Now ensure that the caches are in synch.
   */
  
  alt_dcache_flush_all();
  alt_icache_flush_all();
    2c74:	00030281 	jmpi	3028 <alt_icache_flush_all>

00002c78 <alt_main>:
 * devices/filesystems/components in the system; and call the entry point for
 * the users application, i.e. main().
 */

void alt_main (void)
{
    2c78:	deffff04 	addi	sp,sp,-4
#endif

  /* ALT LOG - please see HAL/sys/alt_log_printf.h for details */
  ALT_LOG_PRINT_BOOT("[alt_main.c] Entering alt_main, calling alt_irq_init.\r\n");
  /* Initialize the interrupt controller. */
  alt_irq_init (NULL);
    2c7c:	0009883a 	mov	r4,zero
 * devices/filesystems/components in the system; and call the entry point for
 * the users application, i.e. main().
 */

void alt_main (void)
{
    2c80:	dfc00015 	stw	ra,0(sp)
#endif

  /* ALT LOG - please see HAL/sys/alt_log_printf.h for details */
  ALT_LOG_PRINT_BOOT("[alt_main.c] Entering alt_main, calling alt_irq_init.\r\n");
  /* Initialize the interrupt controller. */
  alt_irq_init (NULL);
    2c84:	0002eec0 	call	2eec <alt_irq_init>
  ALT_LOG_PRINT_BOOT("[alt_main.c] Done OS Init, calling alt_sem_create.\r\n");
  ALT_SEM_CREATE (&alt_fd_list_lock, 1);

  /* Initialize the device drivers/software components. */
  ALT_LOG_PRINT_BOOT("[alt_main.c] Calling alt_sys_init.\r\n");
  alt_sys_init();
    2c88:	0002ee80 	call	2ee8 <alt_sys_init>
   */

  ALT_LOG_PRINT_BOOT("[alt_main.c] Calling main.\r\n");

#ifdef ALT_NO_EXIT
  main (alt_argc, alt_argv, alt_envp);
    2c8c:	d1204b17 	ldw	r4,-32468(gp)
    2c90:	d1604c17 	ldw	r5,-32464(gp)
    2c94:	d1a04d17 	ldw	r6,-32460(gp)
  close(STDOUT_FILENO);
  exit (result);
#endif

  ALT_LOG_PRINT_BOOT("[alt_main.c] After main - we should not be here?.\r\n");
}
    2c98:	dfc00017 	ldw	ra,0(sp)
    2c9c:	dec00104 	addi	sp,sp,4
   */

  ALT_LOG_PRINT_BOOT("[alt_main.c] Calling main.\r\n");

#ifdef ALT_NO_EXIT
  main (alt_argc, alt_argv, alt_envp);
    2ca0:	00002141 	jmpi	214 <main>

00002ca4 <alt_printf>:
/* 
 * ALT printf function 
 */
void 
alt_printf(const char* fmt, ... )
{
    2ca4:	defff804 	addi	sp,sp,-32
    2ca8:	dfc00415 	stw	ra,16(sp)
    2cac:	dc800315 	stw	r18,12(sp)
    2cb0:	dc400215 	stw	r17,8(sp)
    2cb4:	dc000115 	stw	r16,4(sp)
    2cb8:	d9400515 	stw	r5,20(sp)
    2cbc:	d9800615 	stw	r6,24(sp)
    2cc0:	d9c00715 	stw	r7,28(sp)
	va_list args;
	va_start(args, fmt);
    2cc4:	d8800504 	addi	r2,sp,20
    2cc8:	2025883a 	mov	r18,r4
    2ccc:	d8800015 	stw	r2,0(sp)
    2cd0:	00003d06 	br	2dc8 <alt_printf+0x124>
    w = fmt;
    while ((c = *w++) != 0)
    {
        /* If not a format escape character, just print  */
        /* character.  Otherwise, process format string. */
        if (c != '%')
    2cd4:	00800944 	movi	r2,37
    const char *w;
    char c;

    /* Process format string. */
    w = fmt;
    while ((c = *w++) != 0)
    2cd8:	94800044 	addi	r18,r18,1
    {
        /* If not a format escape character, just print  */
        /* character.  Otherwise, process format string. */
        if (c != '%')
    2cdc:	18800226 	beq	r3,r2,2ce8 <alt_printf+0x44>
        {
            alt_putchar(c);
    2ce0:	1809883a 	mov	r4,r3
    2ce4:	00000a06 	br	2d10 <alt_printf+0x6c>
        }
        else
        {
            /* Get format character.  If none     */
            /* available, processing is complete. */
            if ((c = *w++) != 0)
    2ce8:	91000007 	ldb	r4,0(r18)
    2cec:	94800044 	addi	r18,r18,1
    2cf0:	20003726 	beq	r4,zero,2dd0 <alt_printf+0x12c>
            {
                if (c == '%')
    2cf4:	20c00626 	beq	r4,r3,2d10 <alt_printf+0x6c>
                {
                    /* Process "%" escape sequence. */
                    alt_putchar(c);
                } 
                else if (c == 'c')
    2cf8:	008018c4 	movi	r2,99
    2cfc:	2080061e 	bne	r4,r2,2d18 <alt_printf+0x74>
                {
                    int v = va_arg(args, int);
    2d00:	d8800017 	ldw	r2,0(sp)
                    alt_putchar(v);
    2d04:	11000017 	ldw	r4,0(r2)
                    /* Process "%" escape sequence. */
                    alt_putchar(c);
                } 
                else if (c == 'c')
                {
                    int v = va_arg(args, int);
    2d08:	10800104 	addi	r2,r2,4
    2d0c:	d8800015 	stw	r2,0(sp)
                    alt_putchar(v);
    2d10:	0002de80 	call	2de8 <alt_putchar>
    2d14:	00002c06 	br	2dc8 <alt_printf+0x124>
                }
                else if (c == 'x')
    2d18:	00801e04 	movi	r2,120
    2d1c:	20801e1e 	bne	r4,r2,2d98 <alt_printf+0xf4>
                {
                    /* Process hexadecimal number format. */
                    unsigned long v = va_arg(args, unsigned long);
    2d20:	d8800017 	ldw	r2,0(sp)
    2d24:	14400017 	ldw	r17,0(r2)
    2d28:	10800104 	addi	r2,r2,4
    2d2c:	d8800015 	stw	r2,0(sp)
                    unsigned long digit;
                    int digit_shift;

                    /* If the number value is zero, just print and continue. */
                    if (v == 0)
    2d30:	88000226 	beq	r17,zero,2d3c <alt_printf+0x98>
    2d34:	04000704 	movi	r16,28
    2d38:	00000306 	br	2d48 <alt_printf+0xa4>
                    {
                        alt_putchar('0');
    2d3c:	01000c04 	movi	r4,48
    2d40:	003ff306 	br	2d10 <alt_printf+0x6c>
                    }

                    /* Find first non-zero digit. */
                    digit_shift = 28;
                    while (!(v & (0xF << digit_shift)))
                        digit_shift -= 4;
    2d44:	843fff04 	addi	r16,r16,-4
                        continue;
                    }

                    /* Find first non-zero digit. */
                    digit_shift = 28;
                    while (!(v & (0xF << digit_shift)))
    2d48:	008003c4 	movi	r2,15
    2d4c:	1404983a 	sll	r2,r2,r16
    2d50:	8884703a 	and	r2,r17,r2
    2d54:	103ffb26 	beq	r2,zero,2d44 <alt_printf+0xa0>
    2d58:	00000b06 	br	2d88 <alt_printf+0xe4>
                        digit_shift -= 4;

                    /* Print digits. */
                    for (; digit_shift >= 0; digit_shift -= 4)
                    {
                        digit = (v & (0xF << digit_shift)) >> digit_shift;
    2d5c:	8884703a 	and	r2,r17,r2
    2d60:	1406d83a 	srl	r3,r2,r16
                        if (digit <= 9)
    2d64:	00800244 	movi	r2,9
                            c = '0' + digit;
    2d68:	19000c04 	addi	r4,r3,48

                    /* Print digits. */
                    for (; digit_shift >= 0; digit_shift -= 4)
                    {
                        digit = (v & (0xF << digit_shift)) >> digit_shift;
                        if (digit <= 9)
    2d6c:	10c0012e 	bgeu	r2,r3,2d74 <alt_printf+0xd0>
                            c = '0' + digit;
                        else
                            c = 'a' + digit - 10;
    2d70:	190015c4 	addi	r4,r3,87
                        alt_putchar(c);
    2d74:	21003fcc 	andi	r4,r4,255
    2d78:	2100201c 	xori	r4,r4,128
    2d7c:	213fe004 	addi	r4,r4,-128
                    digit_shift = 28;
                    while (!(v & (0xF << digit_shift)))
                        digit_shift -= 4;

                    /* Print digits. */
                    for (; digit_shift >= 0; digit_shift -= 4)
    2d80:	843fff04 	addi	r16,r16,-4
                        digit = (v & (0xF << digit_shift)) >> digit_shift;
                        if (digit <= 9)
                            c = '0' + digit;
                        else
                            c = 'a' + digit - 10;
                        alt_putchar(c);
    2d84:	0002de80 	call	2de8 <alt_putchar>
                        digit_shift -= 4;

                    /* Print digits. */
                    for (; digit_shift >= 0; digit_shift -= 4)
                    {
                        digit = (v & (0xF << digit_shift)) >> digit_shift;
    2d88:	008003c4 	movi	r2,15
    2d8c:	1404983a 	sll	r2,r2,r16
                    digit_shift = 28;
                    while (!(v & (0xF << digit_shift)))
                        digit_shift -= 4;

                    /* Print digits. */
                    for (; digit_shift >= 0; digit_shift -= 4)
    2d90:	803ff20e 	bge	r16,zero,2d5c <alt_printf+0xb8>
    2d94:	00000c06 	br	2dc8 <alt_printf+0x124>
                        else
                            c = 'a' + digit - 10;
                        alt_putchar(c);
                    }
                }
                else if (c == 's')
    2d98:	00801cc4 	movi	r2,115
    2d9c:	20800a1e 	bne	r4,r2,2dc8 <alt_printf+0x124>
                {
                    /* Process string format. */
                    char *s = va_arg(args, char *);
    2da0:	d8800017 	ldw	r2,0(sp)
    2da4:	14000017 	ldw	r16,0(r2)
    2da8:	10800104 	addi	r2,r2,4
    2dac:	d8800015 	stw	r2,0(sp)
    2db0:	00000106 	br	2db8 <alt_printf+0x114>

                    while(*s)
                      alt_putchar(*s++);
    2db4:	0002de80 	call	2de8 <alt_putchar>
                else if (c == 's')
                {
                    /* Process string format. */
                    char *s = va_arg(args, char *);

                    while(*s)
    2db8:	80800007 	ldb	r2,0(r16)
                      alt_putchar(*s++);
    2dbc:	84000044 	addi	r16,r16,1
    2dc0:	1009883a 	mov	r4,r2
                else if (c == 's')
                {
                    /* Process string format. */
                    char *s = va_arg(args, char *);

                    while(*s)
    2dc4:	103ffb1e 	bne	r2,zero,2db4 <alt_printf+0x110>
    const char *w;
    char c;

    /* Process format string. */
    w = fmt;
    while ((c = *w++) != 0)
    2dc8:	90c00007 	ldb	r3,0(r18)
    2dcc:	183fc11e 	bne	r3,zero,2cd4 <alt_printf+0x30>
            {
                break;
            }
        }
    }
}
    2dd0:	dfc00417 	ldw	ra,16(sp)
    2dd4:	dc800317 	ldw	r18,12(sp)
    2dd8:	dc400217 	ldw	r17,8(sp)
    2ddc:	dc000117 	ldw	r16,4(sp)
    2de0:	dec00804 	addi	sp,sp,32
    2de4:	f800283a 	ret

00002de8 <alt_putchar>:
 * Uses the ALT_DRIVER_WRITE() macro to call directly to driver if available.
 * Otherwise, uses newlib provided putchar() routine.
 */
int 
alt_putchar(int c)
{
    2de8:	defffd04 	addi	sp,sp,-12
    2dec:	dc000115 	stw	r16,4(sp)
#ifdef ALT_USE_DIRECT_DRIVERS
    ALT_DRIVER_WRITE_EXTERNS(ALT_STDOUT_DEV);
    char        c1 = (char)(c & 0xff);

    if (ALT_DRIVER_WRITE(ALT_STDOUT_DEV, &c1, 1, 0) == -1) {
    2df0:	d80b883a 	mov	r5,sp
 * Uses the ALT_DRIVER_WRITE() macro to call directly to driver if available.
 * Otherwise, uses newlib provided putchar() routine.
 */
int 
alt_putchar(int c)
{
    2df4:	2021883a 	mov	r16,r4
#ifdef ALT_USE_DIRECT_DRIVERS
    ALT_DRIVER_WRITE_EXTERNS(ALT_STDOUT_DEV);
    char        c1 = (char)(c & 0xff);

    if (ALT_DRIVER_WRITE(ALT_STDOUT_DEV, &c1, 1, 0) == -1) {
    2df8:	01800044 	movi	r6,1
    2dfc:	01000034 	movhi	r4,0
    2e00:	210d6b04 	addi	r4,r4,13740
    2e04:	000f883a 	mov	r7,zero
 * Uses the ALT_DRIVER_WRITE() macro to call directly to driver if available.
 * Otherwise, uses newlib provided putchar() routine.
 */
int 
alt_putchar(int c)
{
    2e08:	dfc00215 	stw	ra,8(sp)
#ifdef ALT_USE_DIRECT_DRIVERS
    ALT_DRIVER_WRITE_EXTERNS(ALT_STDOUT_DEV);
    char        c1 = (char)(c & 0xff);
    2e0c:	dc000005 	stb	r16,0(sp)

    if (ALT_DRIVER_WRITE(ALT_STDOUT_DEV, &c1, 1, 0) == -1) {
    2e10:	0002f0c0 	call	2f0c <altera_avalon_jtag_uart_write>
    2e14:	1009883a 	mov	r4,r2
    2e18:	00bfffc4 	movi	r2,-1
    2e1c:	2080011e 	bne	r4,r2,2e24 <alt_putchar+0x3c>
    2e20:	2021883a 	mov	r16,r4
    }
    return c;
#else
    return putchar(c);
#endif
}
    2e24:	8005883a 	mov	r2,r16
    2e28:	dfc00217 	ldw	ra,8(sp)
    2e2c:	dc000117 	ldw	r16,4(sp)
    2e30:	dec00304 	addi	sp,sp,12
    2e34:	f800283a 	ret

00002e38 <alt_putstr>:
 * Uses the ALT_DRIVER_WRITE() macro to call directly to driver if available.
 * Otherwise, uses newlib provided fputs() routine.
 */
int 
alt_putstr(const char* str)
{
    2e38:	defffe04 	addi	sp,sp,-8
    2e3c:	dc000015 	stw	r16,0(sp)
    2e40:	dfc00115 	stw	ra,4(sp)
    2e44:	2021883a 	mov	r16,r4
#ifdef ALT_USE_DIRECT_DRIVERS
    ALT_DRIVER_WRITE_EXTERNS(ALT_STDOUT_DEV);
    return ALT_DRIVER_WRITE(ALT_STDOUT_DEV, str, strlen(str), 0);
    2e48:	00023580 	call	2358 <strlen>
    2e4c:	800b883a 	mov	r5,r16
    2e50:	100d883a 	mov	r6,r2
    2e54:	01000034 	movhi	r4,0
    2e58:	210d6b04 	addi	r4,r4,13740
    2e5c:	000f883a 	mov	r7,zero
#else
    return fputs(str, stdout);
#endif
}
    2e60:	dfc00117 	ldw	ra,4(sp)
    2e64:	dc000017 	ldw	r16,0(sp)
    2e68:	dec00204 	addi	sp,sp,8
int 
alt_putstr(const char* str)
{
#ifdef ALT_USE_DIRECT_DRIVERS
    ALT_DRIVER_WRITE_EXTERNS(ALT_STDOUT_DEV);
    return ALT_DRIVER_WRITE(ALT_STDOUT_DEV, str, strlen(str), 0);
    2e6c:	0002f0c1 	jmpi	2f0c <altera_avalon_jtag_uart_write>

00002e70 <write>:
 * Provide minimal version that just writes to the stdout/stderr devices
 * when provided.
 */

int ALT_WRITE (int file, const void *ptr, size_t len)
{
    2e70:	deffff04 	addi	sp,sp,-4
    2e74:	2007883a 	mov	r3,r4
#if !defined(ALT_STDOUT_PRESENT) && !defined(ALT_STDERR_PRESENT)
    /* Generate a link time warning, should this function ever be called. */
    ALT_STUB_WARNING(write);
#endif

    switch (file) {
    2e78:	00800044 	movi	r2,1
 * Provide minimal version that just writes to the stdout/stderr devices
 * when provided.
 */

int ALT_WRITE (int file, const void *ptr, size_t len)
{
    2e7c:	dfc00015 	stw	ra,0(sp)
#endif

    switch (file) {
#ifdef ALT_STDOUT_PRESENT
    case 1: /* stdout file descriptor */
        return ALT_DRIVER_WRITE(ALT_STDOUT_DEV, ptr, len, 0);
    2e80:	000f883a 	mov	r7,zero
    2e84:	01000034 	movhi	r4,0
    2e88:	210d6b04 	addi	r4,r4,13740
#if !defined(ALT_STDOUT_PRESENT) && !defined(ALT_STDERR_PRESENT)
    /* Generate a link time warning, should this function ever be called. */
    ALT_STUB_WARNING(write);
#endif

    switch (file) {
    2e8c:	18800526 	beq	r3,r2,2ea4 <write+0x34>
    2e90:	00800084 	movi	r2,2
    2e94:	1880061e 	bne	r3,r2,2eb0 <write+0x40>
    case 1: /* stdout file descriptor */
        return ALT_DRIVER_WRITE(ALT_STDOUT_DEV, ptr, len, 0);
#endif /* ALT_STDOUT_PRESENT */
#ifdef ALT_STDERR_PRESENT
    case 2: /* stderr file descriptor */
        return ALT_DRIVER_WRITE(ALT_STDERR_DEV, ptr, len, 0);
    2e98:	01000034 	movhi	r4,0
    2e9c:	210d6b04 	addi	r4,r4,13740
    2ea0:	000f883a 	mov	r7,zero
#endif /* ALT_STDERR_PRESENT */
    default:
        ALT_ERRNO = EBADFD;
        return -1;
    }
}
    2ea4:	dfc00017 	ldw	ra,0(sp)
    2ea8:	dec00104 	addi	sp,sp,4
    case 1: /* stdout file descriptor */
        return ALT_DRIVER_WRITE(ALT_STDOUT_DEV, ptr, len, 0);
#endif /* ALT_STDOUT_PRESENT */
#ifdef ALT_STDERR_PRESENT
    case 2: /* stderr file descriptor */
        return ALT_DRIVER_WRITE(ALT_STDERR_DEV, ptr, len, 0);
    2eac:	0002f0c1 	jmpi	2f0c <altera_avalon_jtag_uart_write>

extern int errno;

static ALT_INLINE int* alt_get_errno(void)
{
  return ((alt_errno) ? alt_errno() : &errno);
    2eb0:	00800034 	movhi	r2,0
    2eb4:	108d6d04 	addi	r2,r2,13748
    2eb8:	10800017 	ldw	r2,0(r2)
    2ebc:	00c00034 	movhi	r3,0
    2ec0:	18cdaf04 	addi	r3,r3,14012
    2ec4:	10000226 	beq	r2,zero,2ed0 <write+0x60>
    2ec8:	103ee83a 	callr	r2
    2ecc:	1007883a 	mov	r3,r2
#endif /* ALT_STDERR_PRESENT */
    default:
        ALT_ERRNO = EBADFD;
    2ed0:	00801444 	movi	r2,81
    2ed4:	18800015 	stw	r2,0(r3)
        return -1;
    }
}
    2ed8:	00bfffc4 	movi	r2,-1
    2edc:	dfc00017 	ldw	ra,0(sp)
    2ee0:	dec00104 	addi	sp,sp,4
    2ee4:	f800283a 	ret

00002ee8 <alt_sys_init>:
    ALTERA_AVALON_TIMER_INIT ( TIMER_0, timer_0);
    ALTERA_AVALON_JTAG_UART_INIT ( JTAG_UART_0, jtag_uart_0);
    ALTERA_AVALON_SPI_INIT ( SPI_0, spi_0);
    ALTERA_AVALON_SPI_INIT ( SPI_1, spi_1);
    ALTERA_AVALON_UART_INIT ( UART_0, uart_0);
}
    2ee8:	f800283a 	ret

00002eec <alt_irq_init>:
 * The "base" parameter is ignored and only
 * present for backwards-compatibility.
 */

void alt_irq_init ( const void* base )
{
    2eec:	deffff04 	addi	sp,sp,-4
    2ef0:	dfc00015 	stw	ra,0(sp)
    ALTERA_NIOS2_QSYS_IRQ_INIT ( NIOS2_QSYS_0, nios2_qsys_0);
    2ef4:	000302c0 	call	302c <altera_nios2_qsys_irq_init>
 * alt_irq_cpu_enable_interrupts() enables the CPU to start taking interrupts.
 */
static ALT_INLINE void ALT_ALWAYS_INLINE 
       alt_irq_cpu_enable_interrupts ()
{
    NIOS2_WRITE_STATUS(NIOS2_STATUS_PIE_MSK
    2ef8:	00800044 	movi	r2,1
    2efc:	1001703a 	wrctl	status,r2
    alt_irq_cpu_enable_interrupts();
}
    2f00:	dfc00017 	ldw	ra,0(sp)
    2f04:	dec00104 	addi	sp,sp,4
    2f08:	f800283a 	ret

00002f0c <altera_avalon_jtag_uart_write>:
 */

int altera_avalon_jtag_uart_write(altera_avalon_jtag_uart_state* sp, 
  const char * ptr, int count, int flags)
{
  unsigned int base = sp->base;
    2f0c:	21000017 	ldw	r4,0(r4)

  const char * end = ptr + count;
    2f10:	298f883a 	add	r7,r5,r6
    2f14:	20c00104 	addi	r3,r4,4
    2f18:	00000606 	br	2f34 <altera_avalon_jtag_uart_write+0x28>

  while (ptr < end)
    if ((IORD_ALTERA_AVALON_JTAG_UART_CONTROL(base) & ALTERA_AVALON_JTAG_UART_CONTROL_WSPACE_MSK) != 0)
    2f1c:	18800037 	ldwio	r2,0(r3)
    2f20:	10bfffec 	andhi	r2,r2,65535
    2f24:	10000326 	beq	r2,zero,2f34 <altera_avalon_jtag_uart_write+0x28>
      IOWR_ALTERA_AVALON_JTAG_UART_DATA(base, *ptr++);
    2f28:	28800007 	ldb	r2,0(r5)
    2f2c:	29400044 	addi	r5,r5,1
    2f30:	20800035 	stwio	r2,0(r4)
{
  unsigned int base = sp->base;

  const char * end = ptr + count;

  while (ptr < end)
    2f34:	29fff936 	bltu	r5,r7,2f1c <altera_avalon_jtag_uart_write+0x10>
    if ((IORD_ALTERA_AVALON_JTAG_UART_CONTROL(base) & ALTERA_AVALON_JTAG_UART_CONTROL_WSPACE_MSK) != 0)
      IOWR_ALTERA_AVALON_JTAG_UART_DATA(base, *ptr++);

  return count;
}
    2f38:	3005883a 	mov	r2,r6
    2f3c:	f800283a 	ret

00002f40 <alt_avalon_spi_command>:

int alt_avalon_spi_command(alt_u32 base, alt_u32 slave,
                           alt_u32 write_length, const alt_u8 * write_data,
                           alt_u32 read_length, alt_u8 * read_data,
                           alt_u32 flags)
{
    2f40:	db000017 	ldw	r12,0(sp)
    2f44:	da000117 	ldw	r8,4(sp)
  /* Warning: this function is not currently safe if called in a multi-threaded
   * environment, something above must perform locking to make it safe if more
   * than one thread intends to use it.
   */

  IOWR_ALTERA_AVALON_SPI_SLAVE_SEL(base, 1 << slave);
    2f48:	00c00044 	movi	r3,1
    2f4c:	194a983a 	sll	r5,r3,r5

int alt_avalon_spi_command(alt_u32 base, alt_u32 slave,
                           alt_u32 write_length, const alt_u8 * write_data,
                           alt_u32 read_length, alt_u8 * read_data,
                           alt_u32 flags)
{
    2f50:	dbc00217 	ldw	r15,8(sp)
  const alt_u8 * write_end = write_data + write_length;
    2f54:	399d883a 	add	r14,r7,r6
  alt_u8 * read_end = read_data + read_length;
    2f58:	431b883a 	add	r13,r8,r12
  /* Warning: this function is not currently safe if called in a multi-threaded
   * environment, something above must perform locking to make it safe if more
   * than one thread intends to use it.
   */

  IOWR_ALTERA_AVALON_SPI_SLAVE_SEL(base, 1 << slave);
    2f5c:	21400535 	stwio	r5,20(r4)
  
  /* Set the SSO bit (force chipselect) only if the toggle flag is not set */
  if ((flags & ALT_AVALON_SPI_COMMAND_TOGGLE_SS_N) == 0) {
    2f60:	7880008c 	andi	r2,r15,2
    2f64:	1000021e 	bne	r2,zero,2f70 <alt_avalon_spi_command+0x30>
    IOWR_ALTERA_AVALON_SPI_CONTROL(base, ALTERA_AVALON_SPI_CONTROL_SSO_MSK);
    2f68:	00810004 	movi	r2,1024
    2f6c:	20800335 	stwio	r2,12(r4)
  /*
   * Discard any stale data present in the RXDATA register, in case
   * previous communication was interrupted and stale data was left
   * behind.
   */
  IORD_ALTERA_AVALON_SPI_RXDATA(base);
    2f70:	20800037 	ldwio	r2,0(r4)
    2f74:	180b883a 	mov	r5,r3
    2f78:	6013883a 	mov	r9,r12
    2f7c:	22c00204 	addi	r11,r4,8
    2f80:	00000106 	br	2f88 <alt_avalon_spi_command+0x48>
    2f84:	000d883a 	mov	r6,zero
  for ( ; ; )
  {
    
    do
    {
      status = IORD_ALTERA_AVALON_SPI_STATUS(base);
    2f88:	5a800037 	ldwio	r10,0(r11)
    }
    while (((status & ALTERA_AVALON_SPI_STATUS_TRDY_MSK) == 0 || credits == 0) &&
            (status & ALTERA_AVALON_SPI_STATUS_RRDY_MSK) == 0);
    2f8c:	5080100c 	andi	r2,r10,64
    2f90:	1007003a 	cmpeq	r3,r2,zero
    2f94:	1800011e 	bne	r3,zero,2f9c <alt_avalon_spi_command+0x5c>
    2f98:	2800031e 	bne	r5,zero,2fa8 <alt_avalon_spi_command+0x68>
    2f9c:	5080200c 	andi	r2,r10,128
    2fa0:	103ff926 	beq	r2,zero,2f88 <alt_avalon_spi_command+0x48>

    if ((status & ALTERA_AVALON_SPI_STATUS_TRDY_MSK) != 0 && credits > 0)
    2fa4:	18000e1e 	bne	r3,zero,2fe0 <alt_avalon_spi_command+0xa0>
    2fa8:	01400b0e 	bge	zero,r5,2fd8 <alt_avalon_spi_command+0x98>
    {
      credits--;
    2fac:	297fffc4 	addi	r5,r5,-1

      if (write_data < write_end)
    2fb0:	3b80042e 	bgeu	r7,r14,2fc4 <alt_avalon_spi_command+0x84>
        IOWR_ALTERA_AVALON_SPI_TXDATA(base, *write_data++);
    2fb4:	38800003 	ldbu	r2,0(r7)
    2fb8:	39c00044 	addi	r7,r7,1
    2fbc:	20800135 	stwio	r2,4(r4)
    2fc0:	00000506 	br	2fd8 <alt_avalon_spi_command+0x98>
      else if (write_zeros > 0)
    2fc4:	4800021e 	bne	r9,zero,2fd0 <alt_avalon_spi_command+0x90>
    2fc8:	017f0004 	movi	r5,-1024
    2fcc:	00000206 	br	2fd8 <alt_avalon_spi_command+0x98>
      {
        write_zeros--;
    2fd0:	4a7fffc4 	addi	r9,r9,-1
        IOWR_ALTERA_AVALON_SPI_TXDATA(base, 0);
    2fd4:	20000135 	stwio	zero,4(r4)
      }
      else
        credits = -1024;
    };

    if ((status & ALTERA_AVALON_SPI_STATUS_RRDY_MSK) != 0)
    2fd8:	5080200c 	andi	r2,r10,128
    2fdc:	103fea26 	beq	r2,zero,2f88 <alt_avalon_spi_command+0x48>
    {
      alt_u32 rxdata = IORD_ALTERA_AVALON_SPI_RXDATA(base);
    2fe0:	20800037 	ldwio	r2,0(r4)
    2fe4:	29400044 	addi	r5,r5,1

      if (read_ignore > 0)
    2fe8:	30000326 	beq	r6,zero,2ff8 <alt_avalon_spi_command+0xb8>
        read_ignore--;
    2fec:	31bfffc4 	addi	r6,r6,-1
      else
        *read_data++ = (alt_u8)rxdata;
      credits++;

      if (read_ignore == 0 && read_data == read_end)
    2ff0:	30000326 	beq	r6,zero,3000 <alt_avalon_spi_command+0xc0>
    2ff4:	003fe406 	br	2f88 <alt_avalon_spi_command+0x48>
      alt_u32 rxdata = IORD_ALTERA_AVALON_SPI_RXDATA(base);

      if (read_ignore > 0)
        read_ignore--;
      else
        *read_data++ = (alt_u8)rxdata;
    2ff8:	40800005 	stb	r2,0(r8)
    2ffc:	42000044 	addi	r8,r8,1
      credits++;

      if (read_ignore == 0 && read_data == read_end)
    3000:	437fe01e 	bne	r8,r13,2f84 <alt_avalon_spi_command+0x44>
  }

  /* Wait until the interface has finished transmitting */
  do
  {
    status = IORD_ALTERA_AVALON_SPI_STATUS(base);
    3004:	58800037 	ldwio	r2,0(r11)
  }
  while ((status & ALTERA_AVALON_SPI_STATUS_TMT_MSK) == 0);
    3008:	1080080c 	andi	r2,r2,32
    300c:	103ffd26 	beq	r2,zero,3004 <alt_avalon_spi_command+0xc4>

  /* Clear SSO (release chipselect) unless the caller is going to
   * keep using this chip
   */
  if ((flags & ALT_AVALON_SPI_COMMAND_MERGE) == 0)
    3010:	7880004c 	andi	r2,r15,1
    3014:	1000011e 	bne	r2,zero,301c <alt_avalon_spi_command+0xdc>
    IOWR_ALTERA_AVALON_SPI_CONTROL(base, 0);
    3018:	20000335 	stwio	zero,12(r4)

  return read_length;
}
    301c:	6005883a 	mov	r2,r12
    3020:	f800283a 	ret

00003024 <alt_dcache_flush_all>:
  for (i = (char*) 0; i < (char*) NIOS2_DCACHE_SIZE; i+= NIOS2_DCACHE_LINE_SIZE)
  { 
    __asm__ volatile ("flushd (%0)" :: "r" (i));
  }
#endif /* NIOS2_DCACHE_SIZE > 0 */
}
    3024:	f800283a 	ret

00003028 <alt_icache_flush_all>:
void alt_icache_flush_all (void)
{
#if NIOS2_ICACHE_SIZE > 0
  alt_icache_flush (0, NIOS2_ICACHE_SIZE);
#endif
}
    3028:	f800283a 	ret

0000302c <altera_nios2_qsys_irq_init>:
 * To initialize the internal interrupt controller, just clear the IENABLE
 * register so that all possible IRQs are disabled.
 */
void altera_nios2_qsys_irq_init(void) 
{
    NIOS2_WRITE_IENABLE(0);
    302c:	000170fa 	wrctl	ienable,zero
}
    3030:	f800283a 	ret
